
applications/example_power_gating_all_domains/example_power_gating_all_domains.elf:     file format elf32-littleriscv
applications/example_power_gating_all_domains/example_power_gating_all_domains.elf
architecture: riscv:rv32, flags 0x00000112:
EXEC_P, HAS_SYMS, D_PAGED
start address 0x00000180

Program Header:
    LOAD off    0x00001000 vaddr 0x00000000 paddr 0x00000000 align 2**12
         filesz 0x00003060 memsz 0x00003060 flags rwx
    LOAD off    0x00005000 vaddr 0x00008000 paddr 0x00008000 align 2**12
         filesz 0x000006e4 memsz 0x000027a0 flags rw-

Sections:
Idx Name          Size      VMA       LMA       File off  Algn
  0 .vectors      00000104  00000000  00000000  00001000  2**0
                  CONTENTS, ALLOC, LOAD, READONLY, CODE
  1 .init         000000fe  00000180  00000180  00001180  2**0
                  CONTENTS, ALLOC, LOAD, READONLY, CODE
  2 .text         00002ca4  00000280  00000280  00001280  2**2
                  CONTENTS, ALLOC, LOAD, READONLY, CODE
  3 .power_manager 00000100  00002f24  00002f24  00003f24  2**2
                  ALLOC
  4 .rodata       00000674  00008000  00008000  00005000  2**2
                  CONTENTS, ALLOC, LOAD, READONLY, DATA
  5 .eh_frame     0000003c  00003024  00003024  00004024  2**2
                  CONTENTS, ALLOC, LOAD, READONLY, DATA
  6 .data         00000060  00008674  00008674  00005674  2**2
                  CONTENTS, ALLOC, LOAD, DATA
  7 .sdata        00000010  000086d4  000086d4  000056d4  2**2
                  CONTENTS, ALLOC, LOAD, DATA
  8 .sbss         00000018  000086e4  000086e4  000056e4  2**2
                  ALLOC
  9 .bss          00000098  000086fc  000086fc  000056e4  2**2
                  ALLOC
 10 .heap         00001000  00008794  00008794  000056e4  2**0
                  ALLOC
 11 .stack        00001000  000097a0  000097a0  000056e4  2**4
                  ALLOC
 12 .comment      00000012  00000000  00000000  000056e4  2**0
                  CONTENTS, READONLY
 13 .riscv.attributes 0000002a  00000000  00000000  000056f6  2**0
                  CONTENTS, READONLY
 14 .debug_aranges 000001d8  00000000  00000000  00005720  2**3
                  CONTENTS, READONLY, DEBUGGING, OCTETS
 15 .debug_info   0000b1c2  00000000  00000000  000058f8  2**0
                  CONTENTS, READONLY, DEBUGGING, OCTETS
 16 .debug_abbrev 00002028  00000000  00000000  00010aba  2**0
                  CONTENTS, READONLY, DEBUGGING, OCTETS
 17 .debug_line   000037fc  00000000  00000000  00012ae2  2**0
                  CONTENTS, READONLY, DEBUGGING, OCTETS
 18 .debug_frame  0000057c  00000000  00000000  000162e0  2**2
                  CONTENTS, READONLY, DEBUGGING, OCTETS
 19 .debug_str    000034a1  00000000  00000000  0001685c  2**0
                  CONTENTS, READONLY, DEBUGGING, OCTETS
 20 .debug_line_str 000008df  00000000  00000000  00019cfd  2**0
                  CONTENTS, READONLY, DEBUGGING, OCTETS
 21 .debug_rnglists 0000077f  00000000  00000000  0001a5dc  2**0
                  CONTENTS, READONLY, DEBUGGING, OCTETS
 22 .debug_loclists 00002c9e  00000000  00000000  0001ad5b  2**0
                  CONTENTS, READONLY, DEBUGGING, OCTETS
SYMBOL TABLE:
00000000 l    d  .vectors	00000000 .vectors
00000180 l    d  .init	00000000 .init
00000280 l    d  .text	00000000 .text
00002f24 l    d  .power_manager	00000000 .power_manager
00008000 l    d  .rodata	00000000 .rodata
00003024 l    d  .eh_frame	00000000 .eh_frame
00008674 l    d  .data	00000000 .data
000086d4 l    d  .sdata	00000000 .sdata
000086e4 l    d  .sbss	00000000 .sbss
000086fc l    d  .bss	00000000 .bss
00008794 l    d  .heap	00000000 .heap
000097a0 l    d  .stack	00000000 .stack
00000000 l    d  .comment	00000000 .comment
00000000 l    d  .riscv.attributes	00000000 .riscv.attributes
00000000 l    d  .debug_aranges	00000000 .debug_aranges
00000000 l    d  .debug_info	00000000 .debug_info
00000000 l    d  .debug_abbrev	00000000 .debug_abbrev
00000000 l    d  .debug_line	00000000 .debug_line
00000000 l    d  .debug_frame	00000000 .debug_frame
00000000 l    d  .debug_str	00000000 .debug_str
00000000 l    d  .debug_line_str	00000000 .debug_line_str
00000000 l    d  .debug_rnglists	00000000 .debug_rnglists
00000000 l    d  .debug_loclists	00000000 .debug_loclists
00000000 l    df *ABS*	00000000 ccw09vQQ.o
00000000 l       .vectors	00000000 vector_table
000005e4 l       .text	00000000 __no_irq_handler
000005f4 l       .text	00000000 verification_irq_handler
00008000 l       .rodata	00000000 no_exception_handler_msg
00000000 l    df *ABS*	00000000 exit.c
000005f8 l     F .text	000001a6 power_gate_core_asm
000006d0 l       .text	00000000 wakeup
0000079e l     F .text	00000046 power_gate_core.constprop.0
000007e4 l     F .text	0000008a power_gate_periph.constprop.0
0000086e l     F .text	000000c0 power_gate_ram_block.constprop.0
0000092e l     F .text	00000104 power_gate_external.constprop.0
00000a32 l     F .text	00000020 print_exc_msg
00000a52 l     F .text	00000018 handler_instr_acc_fault
00000a6a l     F .text	00000018 handler_lsu_fault
000086fc l     O .bss	0000000c timer_0_1
0000836c l     O .rodata	00000054 power_manager_external_map
000083c0 l     O .rodata	000000c0 power_manager_ram_map
000086e4 l     O .sbss	00000004 gpio
000086e8 l     O .sbss	00000004 power_manager
000086d8 l     O .sdata	00000004 brk
00000000 l    df *ABS*	00000000 atexit.c
00000000 l    df *ABS*	00000000 fini.c
00000000 l    df *ABS*	00000000 impure.c
00008674 l     O .data	00000060 impure_data
00000000 l    df *ABS*	00000000 init.c
00000000 l    df *ABS*	00000000 puts.c
00000000 l    df *ABS*	00000000 reent.c
00000000 l    df *ABS*	00000000 wbuf.c
00000000 l    df *ABS*	00000000 wsetup.c
00000000 l    df *ABS*	00000000 __atexit.c
00008708 l     O .bss	0000008c _global_atexit0
00000000 l    df *ABS*	00000000 __call_atexit.c
00000000 l    df *ABS*	00000000 fflush.c
00000000 l    df *ABS*	00000000 findfp.c
00001662 l     F .text	00000004 __fp_lock
00001666 l     F .text	00000062 std
000016d0 l     F .text	00000004 __fp_unlock
00000000 l    df *ABS*	00000000 fwalk.c
00000000 l    df *ABS*	00000000 makebuf.c
00000000 l    df *ABS*	00000000 nano-mallocr.c
00000000 l    df *ABS*	00000000 nano-mallocr.c
00000000 l    df *ABS*	00000000 sbrkr.c
00000000 l    df *ABS*	00000000 stdio.c
00000000 l    df *ABS*	00000000 writer.c
00000000 l    df *ABS*	00000000 closer.c
00000000 l    df *ABS*	00000000 fstatr.c
00000000 l    df *ABS*	00000000 isattyr.c
00000000 l    df *ABS*	00000000 lseekr.c
00000000 l    df *ABS*	00000000 mlock.c
00000000 l    df *ABS*	00000000 readr.c
00000000 l    df *ABS*	00000000 printf.c
00000000 l    df *ABS*	00000000 nano-vfprintf.c
00001dfe l     F .text	0000002a __sfputc_r
00000000 l    df *ABS*	00000000 fvwrite.c
00000000 l    df *ABS*	00000000 memchr.c
00000000 l    df *ABS*	00000000 nano-mallocr.c
00000000 l    df *ABS*	00000000 nano-vfprintf_i.c
00000000 l    df *ABS*	00000000 nano-mallocr.c
00000000 l    df *ABS*	00000000 libgcc2.c
00000000 l    df *ABS*	00000000 libgcc2.c
00000000 l    df *ABS*	00000000 libgcc2.c
00008674 l       .data	00000000 __fini_array_end
00008674 l       .data	00000000 __fini_array_start
00008674 l       .data	00000000 __init_array_end
00008674 l       .data	00000000 __preinit_array_end
00008674 l       .data	00000000 __init_array_start
00008674 l       .data	00000000 __preinit_array_start
0000281c g     F .text	00000014 _malloc_usable_size_r
0000946a  w      .debug_info	00000000 .hidden cgra.c.2aec418a
00001ce6 g     F .text	0000002c _isatty_r
000010ac g     F .text	00000022 cleanup_glue
00000fcc g     F .text	000000d8 _puts_r
00001d12 g     F .text	00000030 _lseek_r
00002830 g     F .text	0000039a .hidden __divdi3
00000e30 g     F .text	0000002c handler_irq_fast_gpio_3
00004a84  w      .debug_info	00000000 .hidden memory.c.5e154fd3
00001dc4 g     F .text	0000003a printf
00008e74 g       *ABS*	00000000 __global_pointer$
00001c20 g     F .text	00000036 __sseek
00000000 g       .vectors	00000000 __vector_start
00001720 g     F .text	00000064 __sinit
000011a2 g     F .text	000000ba __swbuf_r
000016d4 g     F .text	00000046 __sfmoreglue
00001d44 g     F .text	00000002 __malloc_unlock
00002410 g     F .text	00000026 memmove
0000171a g     F .text	00000006 _cleanup
00000d70 g     F .text	0000002c handler_irq_fast_spi_flash
00001cb8 g     F .text	0000002e _fstat_r
00000e90 g     F .text	0000002c handler_irq_fast_gpio_5
000086ec g     O .sbss	00000004 errno
00001bce g     F .text	00000004 __seofread
00001000 g       *ABS*	00000000 __stack_size
00000180 g       *ABS*	00000000 __boot_address
000086d4 g       .sdata	00000000 __SDATA_BEGIN__
00000e00 g     F .text	0000002c handler_irq_fast_gpio_2
00008c3b  w      .debug_info	00000000 .hidden spi_host.c.eb21f996
00000cb0 g     F .text	0000002c handler_irq_fast_timer_2
00002f24 g       .power_manager	00000000 __power_manager_start
00001d76 g     F .text	00000016 memcpy
00000ef0 g     F .text	0000002c handler_irq_fast_gpio_7
000016c8 g     F .text	00000008 _cleanup_r
00000d10 g     F .text	0000002c handler_irq_fast_dma
00000ce0 g     F .text	0000002c handler_irq_fast_timer_3
000010a4 g     F .text	00000008 puts
0000535a  w      .debug_info	00000000 .hidden rv_plic.c.44801b83
00001d8c g     F .text	00000038 _printf_r
00000a9a g     F .text	00000008 _fstat
00004be8  w      .debug_info	00000000 .hidden soc_ctrl.c.79403740
00009d0f  w      .debug_info	00000000 .hidden coubertin.c.fe3afaa2
0000212a g     F .text	000002cc __sfvwrite_r
00001b72 g     F .text	0000002c _sbrk_r
00001d46 g     F .text	00000030 _read_r
0000164c g     F .text	00000016 fflush
00000aa2 g     F .text	00000008 _isatty
000086d4 g     O .sdata	00000004 _global_impure_ptr
00002436 g     F .text	0000007c _realloc_r
00000f5e g     F .text	0000005e __libc_init_array
00008794 g       .bss	00000000 __bss_end
00004e2d  w      .debug_info	00000000 .hidden uart.c.8cf5c809
00002bca g     F .text	0000035a .hidden __udivdi3
00000b54 g     F .text	0000002c _sbrk
00001826 g     F .text	0000000c __fp_lock_all
00000278 g     F .init	00000006 _init
00000dd0 g     F .text	0000002c handler_irq_fast_gpio_1
00007a0c  w      .debug_info	00000000 .hidden dma.c.6046117a
00000f28 g     F .text	00000036 __libc_fini_array
000010ce g     F .text	000000d4 _reclaim_reent
000097cf  w      .debug_info	00000000 .hidden fll.c.ab7abce1
00001000 g       *ABS*	00000000 __heap_size
00008480 g     O .rodata	00000020 __sf_fake_stderr
00000ec0 g     F .text	0000002c handler_irq_fast_gpio_6
00001e28 g     F .text	00000042 __sfputs_r
0000181e g     F .text	00000002 __sfp_lock_acquire
000023f6 g     F .text	0000001a memchr
00001a00 g     F .text	0000009e _free_r
000086f0 g     O .sbss	00000004 _global_atexit
000013e4 g     F .text	000000c4 __call_exitprocs
0000a7a0 g       .stack	00000000 _sp
00000da0 g     F .text	0000002c handler_irq_fast_gpio_0
00000180 g     F .init	000000f8 _start
00000aaa g     F .text	00000004 _lseek
00001368 g     F .text	0000007c __register_exitproc
000086e0 g     O .sdata	00000004 __atexit_dummy
00000c80 g     F .text	0000002c handler_irq_fast_timer_1
00001d8c g     F .text	00000038 _iprintf_r
00001c8c g     F .text	0000002c _close_r
00000b80 g     F .text	0000006c handler_exception
00001266 g     F .text	00000102 __swsetup_r
00000a82 g     F .text	00000004 init
00001784 g     F .text	0000009a __sfp
00008794 g       .bss	00000000 __BSS_END__
00005c26  w      .debug_info	00000000 .hidden rv_timer.c.f260e17d
00001824 g     F .text	00000002 __sinit_lock_release
00001b9e g     F .text	00000030 __sread
00001d42 g     F .text	00000002 __malloc_lock
000015ee g     F .text	0000005e _fflush_r
000084a0 g     O .rodata	00000020 __sf_fake_stdin
00007c7e  w      .debug_info	00000000 .hidden power_manager.c.b5cdba7a
000086e4 g       .sbss	00000000 __bss_start
00000fbc g     F .text	00000010 memset
000002a6 g     F .text	0000033e main
00000c20 g     F .text	0000002c handler_irq_timer
00004840  w      .debug_info	00000000 .hidden bitfield.c.4f6bea84
0000125c g     F .text	0000000a __swbuf
00001c56 g     F .text	00000006 __sclose
00001a9e g     F .text	000000d4 _malloc_r
0000183e g     F .text	00000062 _fwalk
00009794 g       .heap	00000000 __heap_end
0000211e g     F .text	0000000c vfiprintf
0000027c g     F .init	00000002 _fini
00001dc4 g     F .text	0000003a iprintf
00000bf0 g     F .text	0000002c handler_irq_software
00008574 g     O .rodata	00000100 .hidden __clz_tab
00000e60 g     F .text	0000002c handler_irq_fast_gpio_4
00000f1e g     F .text	0000000a atexit
000027a5  w      .debug_info	00000000 .hidden example_power_gating_all_domains.c.8e239270
00001c5c g     F .text	00000030 _write_r
00003231  w      .debug_info	00000000 .hidden init.c.d429f5e1
0000898f  w      .debug_info	00000000 .hidden fast_intr_ctrl.c.1992b5ce
000024b2 g     F .text	00000110 _printf_common
000086dc g     O .sdata	00000004 _impure_ptr
000014a8 g     F .text	00000146 __sflush_r
00006519  w      .debug_info	00000000 .hidden gpio.c.8d683676
00001832 g     F .text	0000000c __fp_unlock_all
00000d40 g     F .text	0000002c handler_irq_fast_spi
00008794 g       .heap	00000000 __heap_start
0000a063  w      .debug_info	00000000 .hidden heepocrates_ctrl.c.68858364
0000190a g     F .text	0000005c __swhatbuf_r
00008674 g       .data	00000000 __DATA_BEGIN__
00000ab2 g     F .text	000000a2 _write
000086e4 g       .sdata	00000000 _edata
00008794 g       .bss	00000000 _end
00009264  w      .debug_info	00000000 .hidden pad_control.c.de8979f6
00001bd2 g     F .text	0000004e __swrite
00000280 g     F .text	00000026 exit
00001e8c g     F .text	00000292 _vfiprintf_r
000018a0 g     F .text	0000006a _fwalk_reent
00001820 g     F .text	00000002 __sfp_lock_release
00003263  w      .debug_info	00000000 .hidden syscalls.c.ef2f3526
000084c0 g     O .rodata	00000020 __sf_fake_stdout
00000aae g     F .text	00000004 _read
00000a8a g     F .text	00000010 _exit
00001966 g     F .text	0000009a __smakebuf_r
000025c2 g     F .text	0000025a _printf_i
00004187  w      .debug_info	00000000 .hidden mmio.c.b237f484
000086f8 g     O .sbss	00000004 __malloc_sbrk_start
00001e6a g     F .text	00000022 __sprint_r
000086f4 g     O .sbss	00000004 __malloc_free_list
00003db5  w      .debug_info	00000000 .hidden handler.c.05adad1f
00001e8c g     F .text	00000292 _vfprintf_r
00006e8f  w      .debug_info	00000000 .hidden i2c.c.f4bc7c76
00000c50 g     F .text	0000002c handler_irq_external
0000211e g     F .text	0000000c vfprintf
00000a86 g     F .text	00000004 _close
00001822 g     F .text	00000002 __sinit_lock_acquire



Disassembly of section .vectors:

00000000 <__vector_start>:
   0:	3810006f          	j	b80 <handler_exception>
   4:	5e00006f          	j	5e4 <__no_irq_handler>
   8:	5dc0006f          	j	5e4 <__no_irq_handler>
   c:	3e50006f          	j	bf0 <handler_irq_software>
  10:	5d40006f          	j	5e4 <__no_irq_handler>
  14:	5d00006f          	j	5e4 <__no_irq_handler>
  18:	5cc0006f          	j	5e4 <__no_irq_handler>
  1c:	4050006f          	j	c20 <handler_irq_timer>
  20:	5c40006f          	j	5e4 <__no_irq_handler>
  24:	5c00006f          	j	5e4 <__no_irq_handler>
  28:	5bc0006f          	j	5e4 <__no_irq_handler>
  2c:	4250006f          	j	c50 <handler_irq_external>
  30:	5b40006f          	j	5e4 <__no_irq_handler>
  34:	5b00006f          	j	5e4 <__no_irq_handler>
  38:	5ac0006f          	j	5e4 <__no_irq_handler>
  3c:	5a80006f          	j	5e4 <__no_irq_handler>
  40:	4410006f          	j	c80 <handler_irq_fast_timer_1>
  44:	46d0006f          	j	cb0 <handler_irq_fast_timer_2>
  48:	4990006f          	j	ce0 <handler_irq_fast_timer_3>
  4c:	4c50006f          	j	d10 <handler_irq_fast_dma>
  50:	4f10006f          	j	d40 <handler_irq_fast_spi>
  54:	51d0006f          	j	d70 <handler_irq_fast_spi_flash>
  58:	5490006f          	j	da0 <handler_irq_fast_gpio_0>
  5c:	5750006f          	j	dd0 <handler_irq_fast_gpio_1>
  60:	5a10006f          	j	e00 <handler_irq_fast_gpio_2>
  64:	5cd0006f          	j	e30 <handler_irq_fast_gpio_3>
  68:	5f90006f          	j	e60 <handler_irq_fast_gpio_4>
  6c:	6250006f          	j	e90 <handler_irq_fast_gpio_5>
  70:	6510006f          	j	ec0 <handler_irq_fast_gpio_6>
  74:	67d0006f          	j	ef0 <handler_irq_fast_gpio_7>
  78:	56c0006f          	j	5e4 <__no_irq_handler>
  7c:	5680006f          	j	5e4 <__no_irq_handler>
  80:	5740006f          	j	5f4 <verification_irq_handler>
  84:	5600006f          	j	5e4 <__no_irq_handler>
  88:	55c0006f          	j	5e4 <__no_irq_handler>
  8c:	5580006f          	j	5e4 <__no_irq_handler>
  90:	5540006f          	j	5e4 <__no_irq_handler>
  94:	5500006f          	j	5e4 <__no_irq_handler>
  98:	54c0006f          	j	5e4 <__no_irq_handler>
  9c:	5480006f          	j	5e4 <__no_irq_handler>
  a0:	5440006f          	j	5e4 <__no_irq_handler>
  a4:	5400006f          	j	5e4 <__no_irq_handler>
  a8:	53c0006f          	j	5e4 <__no_irq_handler>
  ac:	5380006f          	j	5e4 <__no_irq_handler>
  b0:	5340006f          	j	5e4 <__no_irq_handler>
  b4:	5300006f          	j	5e4 <__no_irq_handler>
  b8:	52c0006f          	j	5e4 <__no_irq_handler>
  bc:	5280006f          	j	5e4 <__no_irq_handler>
  c0:	5240006f          	j	5e4 <__no_irq_handler>
  c4:	5200006f          	j	5e4 <__no_irq_handler>
  c8:	51c0006f          	j	5e4 <__no_irq_handler>
  cc:	5180006f          	j	5e4 <__no_irq_handler>
  d0:	5140006f          	j	5e4 <__no_irq_handler>
  d4:	5100006f          	j	5e4 <__no_irq_handler>
  d8:	50c0006f          	j	5e4 <__no_irq_handler>
  dc:	5080006f          	j	5e4 <__no_irq_handler>
  e0:	5040006f          	j	5e4 <__no_irq_handler>
  e4:	5000006f          	j	5e4 <__no_irq_handler>
  e8:	4fc0006f          	j	5e4 <__no_irq_handler>
  ec:	4f80006f          	j	5e4 <__no_irq_handler>
  f0:	4f40006f          	j	5e4 <__no_irq_handler>
  f4:	4f00006f          	j	5e4 <__no_irq_handler>
  f8:	4ec0006f          	j	5e4 <__no_irq_handler>
  fc:	4e80006f          	j	5e4 <__no_irq_handler>
 100:	4e40006f          	j	5e4 <__no_irq_handler>

Disassembly of section .init:

00000180 <_start>:
 180:	00009197          	auipc	gp,0x9
 184:	cf418193          	addi	gp,gp,-780 # 8e74 <__global_pointer$>
 188:	0000a117          	auipc	sp,0xa
 18c:	61810113          	addi	sp,sp,1560 # a7a0 <_sp>
 190:	20000537          	lui	a0,0x20000
 194:	6621                	lui	a2,0x8
 196:	0605                	addi	a2,a2,1
 198:	cd50                	sw	a2,28(a0)
 19a:	200815b7          	lui	a1,0x20081
 19e:	41d0                	lw	a2,4(a1)
 1a0:	4594                	lw	a3,8(a1)
 1a2:	03f00793          	li	a5,63
 1a6:	07aa                	slli	a5,a5,0xa
 1a8:	fff7c793          	not	a5,a5
 1ac:	8efd                	and	a3,a3,a5
 1ae:	4719                	li	a4,6
 1b0:	072a                	slli	a4,a4,0xa
 1b2:	8ed9                	or	a3,a3,a4
 1b4:	6785                	lui	a5,0x1
 1b6:	17fd                	addi	a5,a5,-1
 1b8:	07c2                	slli	a5,a5,0x10
 1ba:	fff7c793          	not	a5,a5
 1be:	8efd                	and	a3,a3,a5
 1c0:	05000713          	li	a4,80
 1c4:	0742                	slli	a4,a4,0x10
 1c6:	8ed9                	or	a3,a3,a4
 1c8:	c594                	sw	a3,8(a1)
 1ca:	3ff00793          	li	a5,1023
 1ce:	07c2                	slli	a5,a5,0x10
 1d0:	fff7c793          	not	a5,a5
 1d4:	8e7d                	and	a2,a2,a5
 1d6:	18b00713          	li	a4,395
 1da:	0742                	slli	a4,a4,0x10
 1dc:	8e59                	or	a2,a2,a4
 1de:	c1d0                	sw	a2,4(a1)
 1e0:	4705                	li	a4,1
 1e2:	077a                	slli	a4,a4,0x1e
 1e4:	8e59                	or	a2,a2,a4
 1e6:	4705                	li	a4,1
 1e8:	077e                	slli	a4,a4,0x1f
 1ea:	8e59                	or	a2,a2,a4
 1ec:	67c1                	lui	a5,0x10
 1ee:	17fd                	addi	a5,a5,-1
 1f0:	00079793          	slli	a5,a5,0x0
 1f4:	fff7c793          	not	a5,a5
 1f8:	8e7d                	and	a2,a2,a5
 1fa:	6705                	lui	a4,0x1
 1fc:	7d770713          	addi	a4,a4,2007 # 17d7 <__sfp+0x53>
 200:	8e59                	or	a2,a2,a4
 202:	47bd                	li	a5,15
 204:	07ea                	slli	a5,a5,0x1a
 206:	fff7c793          	not	a5,a5
 20a:	8e7d                	and	a2,a2,a5
 20c:	4709                	li	a4,2
 20e:	076a                	slli	a4,a4,0x1a
 210:	8e59                	or	a2,a2,a4
 212:	c1d0                	sw	a2,4(a1)
 214:	20000537          	lui	a0,0x20000
 218:	6621                	lui	a2,0x8
 21a:	0605                	addi	a2,a2,1
 21c:	4194                	lw	a3,0(a1)
 21e:	02d60633          	mul	a2,a2,a3
 222:	41d4                	lw	a3,4(a1)
 224:	82e9                	srli	a3,a3,0x1a
 226:	8abd                	andi	a3,a3,15
 228:	02d65633          	divu	a2,a2,a3
 22c:	000f46b7          	lui	a3,0xf4
 230:	24068693          	addi	a3,a3,576 # f4240 <_sp+0xe9aa0>
 234:	02d65633          	divu	a2,a2,a3
 238:	02d60633          	mul	a2,a2,a3
 23c:	cd50                	sw	a2,28(a0)
 23e:	00000517          	auipc	a0,0x0
 242:	dc250513          	addi	a0,a0,-574 # 0 <__vector_start>
 246:	00156513          	ori	a0,a0,1
 24a:	30551073          	csrw	mtvec,a0
 24e:	87018513          	addi	a0,gp,-1936 # 86e4 <gpio>
 252:	92018613          	addi	a2,gp,-1760 # 8794 <__BSS_END__>
 256:	8e09                	sub	a2,a2,a0
 258:	4581                	li	a1,0
 25a:	563000ef          	jal	ra,fbc <memset>
 25e:	00001517          	auipc	a0,0x1
 262:	cca50513          	addi	a0,a0,-822 # f28 <__libc_fini_array>
 266:	4b9000ef          	jal	ra,f1e <atexit>
 26a:	4f5000ef          	jal	ra,f5e <__libc_init_array>
 26e:	4502                	lw	a0,0(sp)
 270:	004c                	addi	a1,sp,4
 272:	4601                	li	a2,0
 274:	280d                	jal	2a6 <main>
 276:	a029                	j	280 <exit>

00000278 <_init>:
 278:	00b000ef          	jal	ra,a82 <init>

0000027c <_fini>:
 27c:	8082                	ret

Disassembly of section .text:

00000280 <exit>:
     280:	1141                	addi	sp,sp,-16
     282:	6785                	lui	a5,0x1
     284:	c422                	sw	s0,8(sp)
     286:	c606                	sw	ra,12(sp)
     288:	3e478793          	addi	a5,a5,996 # 13e4 <__call_exitprocs>
     28c:	842a                	mv	s0,a0
     28e:	c781                	beqz	a5,296 <exit+0x16>
     290:	4581                	li	a1,0
     292:	152010ef          	jal	ra,13e4 <__call_exitprocs>
     296:	8601a503          	lw	a0,-1952(gp) # 86d4 <_global_impure_ptr>
     29a:	551c                	lw	a5,40(a0)
     29c:	c391                	beqz	a5,2a0 <exit+0x20>
     29e:	9782                	jalr	a5
     2a0:	8522                	mv	a0,s0
     2a2:	7e8000ef          	jal	ra,a8a <_exit>

000002a6 <main>:
     2a6:	20040737          	lui	a4,0x20040
     2aa:	20000837          	lui	a6,0x20000
     2ae:	20081637          	lui	a2,0x20081
     2b2:	86e1aa23          	sw	a4,-1932(gp) # 86e8 <power_manager>
     2b6:	01c82783          	lw	a5,28(a6) # 2000001c <_sp+0x1fff587c>
     2ba:	4258                	lw	a4,4(a2)
     2bc:	715d                	addi	sp,sp,-80
     2be:	c686                	sw	ra,76(sp)
     2c0:	01a75793          	srli	a5,a4,0x1a
     2c4:	01075693          	srli	a3,a4,0x10
     2c8:	8bbd                	andi	a5,a5,15
     2ca:	3ff6f693          	andi	a3,a3,1023
     2ce:	07aa                	slli	a5,a5,0xa
     2d0:	8fd5                	or	a5,a5,a3
     2d2:	01e75693          	srli	a3,a4,0x1e
     2d6:	8a85                	andi	a3,a3,1
     2d8:	06ba                	slli	a3,a3,0xe
     2da:	837d                	srli	a4,a4,0x1f
     2dc:	8fd5                	or	a5,a5,a3
     2de:	073e                	slli	a4,a4,0xf
     2e0:	8fd9                	or	a5,a5,a4
     2e2:	c4a2                	sw	s0,72(sp)
     2e4:	07c2                	slli	a5,a5,0x10
     2e6:	0807ca63          	bltz	a5,37a <main+0xd4>
     2ea:	4254                	lw	a3,4(a2)
     2ec:	65c1                	lui	a1,0x10
     2ee:	15fd                	addi	a1,a1,-1
     2f0:	01a6d793          	srli	a5,a3,0x1a
     2f4:	0106d513          	srli	a0,a3,0x10
     2f8:	8bbd                	andi	a5,a5,15
     2fa:	3ff57513          	andi	a0,a0,1023
     2fe:	07aa                	slli	a5,a5,0xa
     300:	8fc9                	or	a5,a5,a0
     302:	01e6d513          	srli	a0,a3,0x1e
     306:	8905                	andi	a0,a0,1
     308:	01069713          	slli	a4,a3,0x10
     30c:	053a                	slli	a0,a0,0xe
     30e:	82fd                	srli	a3,a3,0x1f
     310:	8fc9                	or	a5,a5,a0
     312:	06be                	slli	a3,a3,0xf
     314:	8341                	srli	a4,a4,0x10
     316:	8fd5                	or	a5,a5,a3
     318:	07c2                	slli	a5,a5,0x10
     31a:	8f6d                	and	a4,a4,a1
     31c:	8f5d                	or	a4,a4,a5
     31e:	0407ce63          	bltz	a5,37a <main+0xd4>
     322:	3ff5e513          	ori	a0,a1,1023
     326:	0fff07b7          	lui	a5,0xfff0
     32a:	4614                	lw	a3,8(a2)
     32c:	8fc9                	or	a5,a5,a0
     32e:	00f86833          	or	a6,a6,a5
     332:	400007b7          	lui	a5,0x40000
     336:	0107e7b3          	or	a5,a5,a6
     33a:	8ff5                	and	a5,a5,a3
     33c:	82fd                	srli	a3,a3,0x1f
     33e:	06fe                	slli	a3,a3,0x1f
     340:	8fd5                	or	a5,a5,a3
     342:	f00006b7          	lui	a3,0xf0000
     346:	fff68513          	addi	a0,a3,-1 # efffffff <_sp+0xefff585f>
     34a:	8fe9                	and	a5,a5,a0
     34c:	3ff68693          	addi	a3,a3,1023
     350:	8ff5                	and	a5,a5,a3
     352:	005026b7          	lui	a3,0x502
     356:	80068693          	addi	a3,a3,-2048 # 501800 <_sp+0x4f7060>
     35a:	8fd5                	or	a5,a5,a3
     35c:	6691                	lui	a3,0x4
     35e:	c61c                	sw	a5,8(a2)
     360:	c0068693          	addi	a3,a3,-1024 # 3c00 <syscalls.c.ef2f3526+0x99d>
     364:	01075793          	srli	a5,a4,0x10
     368:	8ff5                	and	a5,a5,a3
     36a:	76f1                	lui	a3,0xffffc
     36c:	15868693          	addi	a3,a3,344 # ffffc158 <_sp+0xffff19b8>
     370:	8fd5                	or	a5,a5,a3
     372:	07c2                	slli	a5,a5,0x10
     374:	8f6d                	and	a4,a4,a1
     376:	8f5d                	or	a4,a4,a5
     378:	c258                	sw	a4,4(a2)
     37a:	200816b7          	lui	a3,0x20081
     37e:	42d8                	lw	a4,4(a3)
     380:	03ff07b7          	lui	a5,0x3ff0
     384:	08002637          	lui	a2,0x8002
     388:	8ff9                	and	a5,a5,a4
     38a:	3c260613          	addi	a2,a2,962 # 80023c2 <_sp+0x7ff7c22>
     38e:	8fd1                	or	a5,a5,a2
     390:	40000637          	lui	a2,0x40000
     394:	8e79                	and	a2,a2,a4
     396:	837d                	srli	a4,a4,0x1f
     398:	077e                	slli	a4,a4,0x1f
     39a:	8fd1                	or	a5,a5,a2
     39c:	8fd9                	or	a5,a5,a4
     39e:	c2dc                	sw	a5,4(a3)
     3a0:	429c                	lw	a5,0(a3)
     3a2:	42d8                	lw	a4,4(a3)
     3a4:	66a1                	lui	a3,0x8
     3a6:	07c2                	slli	a5,a5,0x10
     3a8:	83c1                	srli	a5,a5,0x10
     3aa:	0685                	addi	a3,a3,1
     3ac:	02d787b3          	mul	a5,a5,a3
     3b0:	8369                	srli	a4,a4,0x1a
     3b2:	8b3d                	andi	a4,a4,15
     3b4:	02e7d7b3          	divu	a5,a5,a4
     3b8:	20000737          	lui	a4,0x20000
     3bc:	cf5c                	sw	a5,28(a4)
     3be:	4f5c                	lw	a5,28(a4)
     3c0:	3e800793          	li	a5,1000
     3c4:	0001                	nop
     3c6:	17fd                	addi	a5,a5,-1
     3c8:	fff5                	bnez	a5,3c4 <main+0x11e>
     3ca:	200a07b7          	lui	a5,0x200a0
     3ce:	86f1a823          	sw	a5,-1936(gp) # 86e4 <gpio>
     3d2:	00100737          	lui	a4,0x100
     3d6:	01070693          	addi	a3,a4,16 # 100010 <_sp+0xf5870>
     3da:	d394                	sw	a3,32(a5)
     3dc:	cbd8                	sw	a4,20(a5)
     3de:	4685                	li	a3,1
     3e0:	88818713          	addi	a4,gp,-1912 # 86fc <timer_0_1>
     3e4:	200507b7          	lui	a5,0x20050
     3e8:	c31c                	sw	a5,0(a4)
     3ea:	c354                	sw	a3,4(a4)
     3ec:	c714                	sw	a3,8(a4)
     3ee:	dffb0737          	lui	a4,0xdffb0
     3f2:	0007a023          	sw	zero,0(a5) # 20050000 <_sp+0x20045860>
     3f6:	4601                	li	a2,0
     3f8:	10478793          	addi	a5,a5,260
     3fc:	88818413          	addi	s0,gp,-1912 # 86fc <timer_0_1>
     400:	01070893          	addi	a7,a4,16 # dffb0010 <_sp+0xdffa5870>
     404:	20050837          	lui	a6,0x20050
     408:	01470593          	addi	a1,a4,20
     40c:	557d                	li	a0,-1
     40e:	4058                	lw	a4,4(s0)
     410:	04e67363          	bgeu	a2,a4,456 <main+0x1b0>
     414:	4418                	lw	a4,8(s0)
     416:	011786b3          	add	a3,a5,a7
     41a:	177d                	addi	a4,a4,-1
     41c:	070e                	slli	a4,a4,0x3
     41e:	96ba                	add	a3,a3,a4
     420:	96c2                	add	a3,a3,a6
     422:	0006a023          	sw	zero,0(a3) # 8000 <no_exception_handler_msg>
     426:	00b786b3          	add	a3,a5,a1
     42a:	9736                	add	a4,a4,a3
     42c:	9742                	add	a4,a4,a6
     42e:	c308                	sw	a0,0(a4)
     430:	4681                	li	a3,0
     432:	00c78713          	addi	a4,a5,12
     436:	00842303          	lw	t1,8(s0)
     43a:	0066ea63          	bltu	a3,t1,44e <main+0x1a8>
     43e:	0007a023          	sw	zero,0(a5)
     442:	0007a223          	sw	zero,4(a5)
     446:	0605                	addi	a2,a2,1
     448:	10078793          	addi	a5,a5,256
     44c:	b7c9                	j	40e <main+0x168>
     44e:	00442303          	lw	t1,4(s0)
     452:	04666963          	bltu	a2,t1,4a4 <main+0x1fe>
     456:	6521                	lui	a0,0x8
     458:	0a850513          	addi	a0,a0,168 # 80a8 <no_exception_handler_msg+0xa8>
     45c:	449000ef          	jal	ra,10a4 <puts>
     460:	02800793          	li	a5,40
     464:	c03e                	sw	a5,0(sp)
     466:	c23e                	sw	a5,4(sp)
     468:	47f9                	li	a5,30
     46a:	c43e                	sw	a5,8(sp)
     46c:	c63e                	sw	a5,12(sp)
     46e:	100c                	addi	a1,sp,32
     470:	47d1                	li	a5,20
     472:	4505                	li	a0,1
     474:	d002                	sw	zero,32(sp)
     476:	d202                	sw	zero,36(sp)
     478:	d402                	sw	zero,40(sp)
     47a:	d602                	sw	zero,44(sp)
     47c:	d802                	sw	zero,48(sp)
     47e:	da02                	sw	zero,52(sp)
     480:	dc02                	sw	zero,56(sp)
     482:	de02                	sw	zero,60(sp)
     484:	c83e                	sw	a5,16(sp)
     486:	ca3e                	sw	a5,20(sp)
     488:	cc02                	sw	zero,24(sp)
     48a:	ce02                	sw	zero,28(sp)
     48c:	2ea1                	jal	7e4 <power_gate_periph.constprop.0>
     48e:	c115                	beqz	a0,4b2 <main+0x20c>
     490:	6521                	lui	a0,0x8
     492:	0b050513          	addi	a0,a0,176 # 80b0 <no_exception_handler_msg+0xb0>
     496:	40f000ef          	jal	ra,10a4 <puts>
     49a:	4505                	li	a0,1
     49c:	40b6                	lw	ra,76(sp)
     49e:	4426                	lw	s0,72(sp)
     4a0:	6161                	addi	sp,sp,80
     4a2:	8082                	ret
     4a4:	c308                	sw	a0,0(a4)
     4a6:	fea72e23          	sw	a0,-4(a4)
     4aa:	c308                	sw	a0,0(a4)
     4ac:	0685                	addi	a3,a3,1
     4ae:	0721                	addi	a4,a4,8
     4b0:	b759                	j	436 <main+0x190>
     4b2:	1010                	addi	a2,sp,32
     4b4:	4585                	li	a1,1
     4b6:	4509                	li	a0,2
     4b8:	2e5d                	jal	86e <power_gate_ram_block.constprop.0>
     4ba:	f979                	bnez	a0,490 <main+0x1ea>
     4bc:	1010                	addi	a2,sp,32
     4be:	4585                	li	a1,1
     4c0:	450d                	li	a0,3
     4c2:	2675                	jal	86e <power_gate_ram_block.constprop.0>
     4c4:	f571                	bnez	a0,490 <main+0x1ea>
     4c6:	1010                	addi	a2,sp,32
     4c8:	4585                	li	a1,1
     4ca:	4511                	li	a0,4
     4cc:	264d                	jal	86e <power_gate_ram_block.constprop.0>
     4ce:	f169                	bnez	a0,490 <main+0x1ea>
     4d0:	1010                	addi	a2,sp,32
     4d2:	4585                	li	a1,1
     4d4:	4515                	li	a0,5
     4d6:	2e61                	jal	86e <power_gate_ram_block.constprop.0>
     4d8:	fd45                	bnez	a0,490 <main+0x1ea>
     4da:	1010                	addi	a2,sp,32
     4dc:	4585                	li	a1,1
     4de:	4519                	li	a0,6
     4e0:	2679                	jal	86e <power_gate_ram_block.constprop.0>
     4e2:	f55d                	bnez	a0,490 <main+0x1ea>
     4e4:	1010                	addi	a2,sp,32
     4e6:	4585                	li	a1,1
     4e8:	451d                	li	a0,7
     4ea:	2651                	jal	86e <power_gate_ram_block.constprop.0>
     4ec:	f155                	bnez	a0,490 <main+0x1ea>
     4ee:	1010                	addi	a2,sp,32
     4f0:	4585                	li	a1,1
     4f2:	2935                	jal	92e <power_gate_external.constprop.0>
     4f4:	fd51                	bnez	a0,490 <main+0x1ea>
     4f6:	1010                	addi	a2,sp,32
     4f8:	4585                	li	a1,1
     4fa:	4505                	li	a0,1
     4fc:	290d                	jal	92e <power_gate_external.constprop.0>
     4fe:	f949                	bnez	a0,490 <main+0x1ea>
     500:	1010                	addi	a2,sp,32
     502:	4585                	li	a1,1
     504:	4509                	li	a0,2
     506:	2125                	jal	92e <power_gate_external.constprop.0>
     508:	f541                	bnez	a0,490 <main+0x1ea>
     50a:	405c                	lw	a5,4(s0)
     50c:	c38d                	beqz	a5,52e <main+0x288>
     50e:	4018                	lw	a4,0(s0)
     510:	67c1                	lui	a5,0x10
     512:	09578793          	addi	a5,a5,149 # 10095 <_sp+0x58f5>
     516:	10f72023          	sw	a5,256(a4)
     51a:	441c                	lw	a5,8(s0)
     51c:	cb89                	beqz	a5,52e <main+0x288>
     51e:	078e                	slli	a5,a5,0x3
     520:	10c78793          	addi	a5,a5,268
     524:	97ba                	add	a5,a5,a4
     526:	4398                	lw	a4,0(a5)
     528:	00176713          	ori	a4,a4,1
     52c:	c398                	sw	a4,0(a5)
     52e:	405c                	lw	a5,4(s0)
     530:	c38d                	beqz	a5,552 <main+0x2ac>
     532:	4418                	lw	a4,8(s0)
     534:	401c                	lw	a5,0(s0)
     536:	cb11                	beqz	a4,54a <main+0x2a4>
     538:	577d                	li	a4,-1
     53a:	10e7a823          	sw	a4,272(a5)
     53e:	40000713          	li	a4,1024
     542:	10e7a623          	sw	a4,268(a5)
     546:	1007a823          	sw	zero,272(a5)
     54a:	4398                	lw	a4,0(a5)
     54c:	00176713          	ori	a4,a4,1
     550:	c398                	sw	a4,0(a5)
     552:	4421                	li	s0,8
     554:	30043073          	csrc	mstatus,s0
     558:	850a                	mv	a0,sp
     55a:	2491                	jal	79e <power_gate_core.constprop.0>
     55c:	f2051ae3          	bnez	a0,490 <main+0x1ea>
     560:	30042073          	csrs	mstatus,s0
     564:	100c                	addi	a1,sp,32
     566:	2cbd                	jal	7e4 <power_gate_periph.constprop.0>
     568:	f20514e3          	bnez	a0,490 <main+0x1ea>
     56c:	1010                	addi	a2,sp,32
     56e:	4581                	li	a1,0
     570:	4509                	li	a0,2
     572:	2cf5                	jal	86e <power_gate_ram_block.constprop.0>
     574:	f0051ee3          	bnez	a0,490 <main+0x1ea>
     578:	1010                	addi	a2,sp,32
     57a:	4581                	li	a1,0
     57c:	450d                	li	a0,3
     57e:	2cc5                	jal	86e <power_gate_ram_block.constprop.0>
     580:	f00518e3          	bnez	a0,490 <main+0x1ea>
     584:	1010                	addi	a2,sp,32
     586:	4581                	li	a1,0
     588:	4511                	li	a0,4
     58a:	24d5                	jal	86e <power_gate_ram_block.constprop.0>
     58c:	f00512e3          	bnez	a0,490 <main+0x1ea>
     590:	1010                	addi	a2,sp,32
     592:	4581                	li	a1,0
     594:	4515                	li	a0,5
     596:	2ce1                	jal	86e <power_gate_ram_block.constprop.0>
     598:	ee051ce3          	bnez	a0,490 <main+0x1ea>
     59c:	1010                	addi	a2,sp,32
     59e:	4581                	li	a1,0
     5a0:	4519                	li	a0,6
     5a2:	24f1                	jal	86e <power_gate_ram_block.constprop.0>
     5a4:	ee0516e3          	bnez	a0,490 <main+0x1ea>
     5a8:	1010                	addi	a2,sp,32
     5aa:	4581                	li	a1,0
     5ac:	451d                	li	a0,7
     5ae:	24c1                	jal	86e <power_gate_ram_block.constprop.0>
     5b0:	ee0510e3          	bnez	a0,490 <main+0x1ea>
     5b4:	1010                	addi	a2,sp,32
     5b6:	4581                	li	a1,0
     5b8:	2e9d                	jal	92e <power_gate_external.constprop.0>
     5ba:	ec051be3          	bnez	a0,490 <main+0x1ea>
     5be:	1010                	addi	a2,sp,32
     5c0:	4581                	li	a1,0
     5c2:	4505                	li	a0,1
     5c4:	26ad                	jal	92e <power_gate_external.constprop.0>
     5c6:	ec0515e3          	bnez	a0,490 <main+0x1ea>
     5ca:	1010                	addi	a2,sp,32
     5cc:	4581                	li	a1,0
     5ce:	4509                	li	a0,2
     5d0:	2eb9                	jal	92e <power_gate_external.constprop.0>
     5d2:	ea051fe3          	bnez	a0,490 <main+0x1ea>
     5d6:	6521                	lui	a0,0x8
     5d8:	0cc50513          	addi	a0,a0,204 # 80cc <no_exception_handler_msg+0xcc>
     5dc:	2c9000ef          	jal	ra,10a4 <puts>
     5e0:	4501                	li	a0,0
     5e2:	bd6d                	j	49c <main+0x1f6>

000005e4 <__no_irq_handler>:
     5e4:	00008517          	auipc	a0,0x8
     5e8:	a1c50513          	addi	a0,a0,-1508 # 8000 <no_exception_handler_msg>
     5ec:	2b9000ef          	jal	ra,10a4 <puts>
     5f0:	ff5ff06f          	j	5e4 <__no_irq_handler>

000005f4 <verification_irq_handler>:
     5f4:	30200073          	mret

000005f8 <power_gate_core_asm>:
     5f8:	20040537          	lui	a0,0x20040
     5fc:	4585                	li	a1,1
     5fe:	c90c                	sw	a1,16(a0)
     600:	c10c                	sw	a1,0(a0)
     602:	00003517          	auipc	a0,0x3
     606:	92250513          	addi	a0,a0,-1758 # 2f24 <__power_manager_start>
     60a:	00152023          	sw	ra,0(a0)
     60e:	00252223          	sw	sp,4(a0)
     612:	00352423          	sw	gp,8(a0)
     616:	00452623          	sw	tp,12(a0)
     61a:	00552823          	sw	t0,16(a0)
     61e:	00652a23          	sw	t1,20(a0)
     622:	00752c23          	sw	t2,24(a0)
     626:	cd40                	sw	s0,28(a0)
     628:	d104                	sw	s1,32(a0)
     62a:	d148                	sw	a0,36(a0)
     62c:	d50c                	sw	a1,40(a0)
     62e:	d550                	sw	a2,44(a0)
     630:	d914                	sw	a3,48(a0)
     632:	d958                	sw	a4,52(a0)
     634:	dd1c                	sw	a5,56(a0)
     636:	03052e23          	sw	a6,60(a0)
     63a:	05152023          	sw	a7,64(a0)
     63e:	05252223          	sw	s2,68(a0)
     642:	05352423          	sw	s3,72(a0)
     646:	05452623          	sw	s4,76(a0)
     64a:	05552823          	sw	s5,80(a0)
     64e:	05652c23          	sw	s6,88(a0)
     652:	05752e23          	sw	s7,92(a0)
     656:	07852023          	sw	s8,96(a0)
     65a:	07952223          	sw	s9,100(a0)
     65e:	07a52423          	sw	s10,104(a0)
     662:	07b52623          	sw	s11,108(a0)
     666:	07c52823          	sw	t3,112(a0)
     66a:	07d52a23          	sw	t4,116(a0)
     66e:	07e52c23          	sw	t5,120(a0)
     672:	07f52e23          	sw	t6,124(a0)
     676:	300025f3          	csrr	a1,mstatus
     67a:	08b52023          	sw	a1,128(a0)
     67e:	304025f3          	csrr	a1,mie
     682:	08b52223          	sw	a1,132(a0)
     686:	305025f3          	csrr	a1,mtvec
     68a:	08b52423          	sw	a1,136(a0)
     68e:	340025f3          	csrr	a1,mscratch
     692:	08b52623          	sw	a1,140(a0)
     696:	341025f3          	csrr	a1,mepc
     69a:	08b52823          	sw	a1,144(a0)
     69e:	342025f3          	csrr	a1,mcause
     6a2:	08b52a23          	sw	a1,148(a0)
     6a6:	343025f3          	csrr	a1,mtval
     6aa:	08b52c23          	sw	a1,152(a0)
     6ae:	b00025f3          	csrr	a1,mcycle
     6b2:	08b52e23          	sw	a1,156(a0)
     6b6:	b02025f3          	csrr	a1,minstret
     6ba:	0ab52023          	sw	a1,160(a0)
     6be:	20040537          	lui	a0,0x20040
     6c2:	00000597          	auipc	a1,0x0
     6c6:	00e58593          	addi	a1,a1,14 # 6d0 <wakeup>
     6ca:	c14c                	sw	a1,4(a0)
     6cc:	10500073          	wfi

000006d0 <wakeup>:
     6d0:	20040537          	lui	a0,0x20040
     6d4:	00052823          	sw	zero,16(a0) # 20040010 <_sp+0x20035870>
     6d8:	00052023          	sw	zero,0(a0)
     6dc:	00052223          	sw	zero,4(a0)
     6e0:	00003517          	auipc	a0,0x3
     6e4:	84450513          	addi	a0,a0,-1980 # 2f24 <__power_manager_start>
     6e8:	00052083          	lw	ra,0(a0)
     6ec:	00452103          	lw	sp,4(a0)
     6f0:	00852183          	lw	gp,8(a0)
     6f4:	00c52203          	lw	tp,12(a0)
     6f8:	01052283          	lw	t0,16(a0)
     6fc:	01452303          	lw	t1,20(a0)
     700:	01852383          	lw	t2,24(a0)
     704:	4d40                	lw	s0,28(a0)
     706:	5104                	lw	s1,32(a0)
     708:	5148                	lw	a0,36(a0)
     70a:	550c                	lw	a1,40(a0)
     70c:	5550                	lw	a2,44(a0)
     70e:	5914                	lw	a3,48(a0)
     710:	5958                	lw	a4,52(a0)
     712:	5d1c                	lw	a5,56(a0)
     714:	03c52803          	lw	a6,60(a0)
     718:	04052883          	lw	a7,64(a0)
     71c:	04452903          	lw	s2,68(a0)
     720:	04852983          	lw	s3,72(a0)
     724:	04c52a03          	lw	s4,76(a0)
     728:	05052a83          	lw	s5,80(a0)
     72c:	05852b03          	lw	s6,88(a0)
     730:	05c52b83          	lw	s7,92(a0)
     734:	06052c03          	lw	s8,96(a0)
     738:	06452c83          	lw	s9,100(a0)
     73c:	06852d03          	lw	s10,104(a0)
     740:	06c52d83          	lw	s11,108(a0)
     744:	07052e03          	lw	t3,112(a0)
     748:	07452e83          	lw	t4,116(a0)
     74c:	07852f03          	lw	t5,120(a0)
     750:	07c52f83          	lw	t6,124(a0)
     754:	08052583          	lw	a1,128(a0)
     758:	30059073          	csrw	mstatus,a1
     75c:	08452583          	lw	a1,132(a0)
     760:	30459073          	csrw	mie,a1
     764:	08852583          	lw	a1,136(a0)
     768:	30559073          	csrw	mtvec,a1
     76c:	08c52583          	lw	a1,140(a0)
     770:	34059073          	csrw	mscratch,a1
     774:	09052583          	lw	a1,144(a0)
     778:	34159073          	csrw	mepc,a1
     77c:	09452583          	lw	a1,148(a0)
     780:	34259073          	csrw	mcause,a1
     784:	09852583          	lw	a1,152(a0)
     788:	34359073          	csrw	mtval,a1
     78c:	09c52583          	lw	a1,156(a0)
     790:	b0059073          	csrw	mcycle,a1
     794:	0a052583          	lw	a1,160(a0)
     798:	b0259073          	csrw	minstret,a1
     79c:	8082                	ret

0000079e <power_gate_core.constprop.0>:
     79e:	1141                	addi	sp,sp,-16
     7a0:	c422                	sw	s0,8(sp)
     7a2:	411c                	lw	a5,0(a0)
     7a4:	8741a403          	lw	s0,-1932(gp) # 86e8 <power_manager>
     7a8:	c606                	sw	ra,12(sp)
     7aa:	cc1c                	sw	a5,24(s0)
     7ac:	415c                	lw	a5,4(a0)
     7ae:	cc5c                	sw	a5,28(s0)
     7b0:	451c                	lw	a5,8(a0)
     7b2:	d01c                	sw	a5,32(s0)
     7b4:	455c                	lw	a5,12(a0)
     7b6:	d05c                	sw	a5,36(s0)
     7b8:	491c                	lw	a5,16(a0)
     7ba:	d45c                	sw	a5,44(s0)
     7bc:	495c                	lw	a5,20(a0)
     7be:	d81c                	sw	a5,48(s0)
     7c0:	4785                	li	a5,1
     7c2:	c41c                	sw	a5,8(s0)
     7c4:	00042623          	sw	zero,12(s0)
     7c8:	d41c                	sw	a5,40(s0)
     7ca:	353d                	jal	5f8 <power_gate_core_asm>
     7cc:	00042423          	sw	zero,8(s0)
     7d0:	00042623          	sw	zero,12(s0)
     7d4:	03f00793          	li	a5,63
     7d8:	40b2                	lw	ra,12(sp)
     7da:	d85c                	sw	a5,52(s0)
     7dc:	4422                	lw	s0,8(sp)
     7de:	4501                	li	a0,0
     7e0:	0141                	addi	sp,sp,16
     7e2:	8082                	ret

000007e4 <power_gate_periph.constprop.0>:
     7e4:	87418713          	addi	a4,gp,-1932 # 86e8 <power_manager>
     7e8:	4318                	lw	a4,0(a4)
     7ea:	4685                	li	a3,1
     7ec:	87418793          	addi	a5,gp,-1932 # 86e8 <power_manager>
     7f0:	c374                	sw	a3,68(a4)
     7f2:	4701                	li	a4,0
     7f4:	c905                	beqz	a0,824 <power_gate_periph.constprop.0+0x40>
     7f6:	49d4                	lw	a3,20(a1)
     7f8:	06d76263          	bltu	a4,a3,85c <power_gate_periph.constprop.0+0x78>
     7fc:	4398                	lw	a4,0(a5)
     7fe:	4685                	li	a3,1
     800:	c734                	sw	a3,72(a4)
     802:	4701                	li	a4,0
     804:	4594                	lw	a3,8(a1)
     806:	04d76e63          	bltu	a4,a3,862 <power_gate_periph.constprop.0+0x7e>
     80a:	4398                	lw	a4,0(a5)
     80c:	4685                	li	a3,1
     80e:	c334                	sw	a3,64(a4)
     810:	4701                	li	a4,0
     812:	41d4                	lw	a3,4(a1)
     814:	04d76a63          	bltu	a4,a3,868 <power_gate_periph.constprop.0+0x84>
     818:	439c                	lw	a5,0(a5)
     81a:	4705                	li	a4,1
     81c:	dfd8                	sw	a4,60(a5)
     81e:	a03d                	j	84c <power_gate_periph.constprop.0+0x68>
     820:	0001                	nop
     822:	0705                	addi	a4,a4,1
     824:	45d4                	lw	a3,12(a1)
     826:	fed76de3          	bltu	a4,a3,820 <power_gate_periph.constprop.0+0x3c>
     82a:	4398                	lw	a4,0(a5)
     82c:	04072023          	sw	zero,64(a4)
     830:	4701                	li	a4,0
     832:	4994                	lw	a3,16(a1)
     834:	00d76e63          	bltu	a4,a3,850 <power_gate_periph.constprop.0+0x6c>
     838:	4398                	lw	a4,0(a5)
     83a:	04072423          	sw	zero,72(a4)
     83e:	4701                	li	a4,0
     840:	4194                	lw	a3,0(a1)
     842:	00d76a63          	bltu	a4,a3,856 <power_gate_periph.constprop.0+0x72>
     846:	439c                	lw	a5,0(a5)
     848:	0207ae23          	sw	zero,60(a5)
     84c:	4501                	li	a0,0
     84e:	8082                	ret
     850:	0001                	nop
     852:	0705                	addi	a4,a4,1
     854:	bff9                	j	832 <power_gate_periph.constprop.0+0x4e>
     856:	0001                	nop
     858:	0705                	addi	a4,a4,1
     85a:	b7dd                	j	840 <power_gate_periph.constprop.0+0x5c>
     85c:	0001                	nop
     85e:	0705                	addi	a4,a4,1
     860:	bf59                	j	7f6 <power_gate_periph.constprop.0+0x12>
     862:	0001                	nop
     864:	0705                	addi	a4,a4,1
     866:	bf79                	j	804 <power_gate_periph.constprop.0+0x20>
     868:	0001                	nop
     86a:	0705                	addi	a4,a4,1
     86c:	b75d                	j	812 <power_gate_periph.constprop.0+0x2e>

0000086e <power_gate_ram_block.constprop.0>:
     86e:	4861                	li	a6,24
     870:	03050833          	mul	a6,a0,a6
     874:	67a1                	lui	a5,0x8
     876:	3c078693          	addi	a3,a5,960 # 83c0 <power_manager_ram_map>
     87a:	87418893          	addi	a7,gp,-1932 # 86e8 <power_manager>
     87e:	3c078793          	addi	a5,a5,960
     882:	87418713          	addi	a4,gp,-1932 # 86e8 <power_manager>
     886:	96c2                	add	a3,a3,a6
     888:	0086a803          	lw	a6,8(a3)
     88c:	0008a683          	lw	a3,0(a7)
     890:	ffc87813          	andi	a6,a6,-4
     894:	96c2                	add	a3,a3,a6
     896:	e5b9                	bnez	a1,8e4 <power_gate_ram_block.constprop.0+0x76>
     898:	4585                	li	a1,1
     89a:	c28c                	sw	a1,0(a3)
     89c:	4681                	li	a3,0
     89e:	464c                	lw	a1,12(a2)
     8a0:	02b6ec63          	bltu	a3,a1,8d8 <power_gate_ram_block.constprop.0+0x6a>
     8a4:	46e1                	li	a3,24
     8a6:	02d506b3          	mul	a3,a0,a3
     8aa:	96be                	add	a3,a3,a5
     8ac:	42cc                	lw	a1,4(a3)
     8ae:	4314                	lw	a3,0(a4)
     8b0:	99f1                	andi	a1,a1,-4
     8b2:	96ae                	add	a3,a3,a1
     8b4:	0006a023          	sw	zero,0(a3)
     8b8:	4681                	li	a3,0
     8ba:	4a0c                	lw	a1,16(a2)
     8bc:	02b6e163          	bltu	a3,a1,8de <power_gate_ram_block.constprop.0+0x70>
     8c0:	46e1                	li	a3,24
     8c2:	02d506b3          	mul	a3,a0,a3
     8c6:	97b6                	add	a5,a5,a3
     8c8:	47d4                	lw	a3,12(a5)
     8ca:	431c                	lw	a5,0(a4)
     8cc:	9af1                	andi	a3,a3,-4
     8ce:	97b6                	add	a5,a5,a3
     8d0:	0007a023          	sw	zero,0(a5)
     8d4:	4501                	li	a0,0
     8d6:	8082                	ret
     8d8:	0001                	nop
     8da:	0685                	addi	a3,a3,1
     8dc:	b7c9                	j	89e <power_gate_ram_block.constprop.0+0x30>
     8de:	0001                	nop
     8e0:	0685                	addi	a3,a3,1
     8e2:	bfe1                	j	8ba <power_gate_ram_block.constprop.0+0x4c>
     8e4:	4585                	li	a1,1
     8e6:	c28c                	sw	a1,0(a3)
     8e8:	4681                	li	a3,0
     8ea:	4a4c                	lw	a1,20(a2)
     8ec:	02b6eb63          	bltu	a3,a1,922 <power_gate_ram_block.constprop.0+0xb4>
     8f0:	46e1                	li	a3,24
     8f2:	02d506b3          	mul	a3,a0,a3
     8f6:	96be                	add	a3,a3,a5
     8f8:	46cc                	lw	a1,12(a3)
     8fa:	4314                	lw	a3,0(a4)
     8fc:	99f1                	andi	a1,a1,-4
     8fe:	96ae                	add	a3,a3,a1
     900:	4585                	li	a1,1
     902:	c28c                	sw	a1,0(a3)
     904:	4681                	li	a3,0
     906:	460c                	lw	a1,8(a2)
     908:	02b6e063          	bltu	a3,a1,928 <power_gate_ram_block.constprop.0+0xba>
     90c:	46e1                	li	a3,24
     90e:	02d50533          	mul	a0,a0,a3
     912:	97aa                	add	a5,a5,a0
     914:	43d4                	lw	a3,4(a5)
     916:	431c                	lw	a5,0(a4)
     918:	4705                	li	a4,1
     91a:	9af1                	andi	a3,a3,-4
     91c:	97b6                	add	a5,a5,a3
     91e:	c398                	sw	a4,0(a5)
     920:	bf55                	j	8d4 <power_gate_ram_block.constprop.0+0x66>
     922:	0001                	nop
     924:	0685                	addi	a3,a3,1
     926:	b7d1                	j	8ea <power_gate_ram_block.constprop.0+0x7c>
     928:	0001                	nop
     92a:	0685                	addi	a3,a3,1
     92c:	bfe9                	j	906 <power_gate_ram_block.constprop.0+0x98>

0000092e <power_gate_external.constprop.0>:
     92e:	4871                	li	a6,28
     930:	03050833          	mul	a6,a0,a6
     934:	67a1                	lui	a5,0x8
     936:	36c78693          	addi	a3,a5,876 # 836c <power_manager_external_map>
     93a:	87418893          	addi	a7,gp,-1932 # 86e8 <power_manager>
     93e:	36c78793          	addi	a5,a5,876
     942:	87418713          	addi	a4,gp,-1932 # 86e8 <power_manager>
     946:	96c2                	add	a3,a3,a6
     948:	00c6a803          	lw	a6,12(a3)
     94c:	0008a683          	lw	a3,0(a7)
     950:	ffc87813          	andi	a6,a6,-4
     954:	96c2                	add	a3,a3,a6
     956:	e9a5                	bnez	a1,9c6 <power_gate_external.constprop.0+0x98>
     958:	4585                	li	a1,1
     95a:	c28c                	sw	a1,0(a3)
     95c:	4681                	li	a3,0
     95e:	464c                	lw	a1,12(a2)
     960:	04b6ea63          	bltu	a3,a1,9b4 <power_gate_external.constprop.0+0x86>
     964:	46f1                	li	a3,28
     966:	02d506b3          	mul	a3,a0,a3
     96a:	96be                	add	a3,a3,a5
     96c:	468c                	lw	a1,8(a3)
     96e:	4314                	lw	a3,0(a4)
     970:	99f1                	andi	a1,a1,-4
     972:	96ae                	add	a3,a3,a1
     974:	0006a023          	sw	zero,0(a3)
     978:	4681                	li	a3,0
     97a:	4a0c                	lw	a1,16(a2)
     97c:	02b6ef63          	bltu	a3,a1,9ba <power_gate_external.constprop.0+0x8c>
     980:	46f1                	li	a3,28
     982:	02d506b3          	mul	a3,a0,a3
     986:	96be                	add	a3,a3,a5
     988:	4a8c                	lw	a1,16(a3)
     98a:	4314                	lw	a3,0(a4)
     98c:	99f1                	andi	a1,a1,-4
     98e:	96ae                	add	a3,a3,a1
     990:	0006a023          	sw	zero,0(a3)
     994:	4681                	li	a3,0
     996:	420c                	lw	a1,0(a2)
     998:	02b6e463          	bltu	a3,a1,9c0 <power_gate_external.constprop.0+0x92>
     99c:	46f1                	li	a3,28
     99e:	02d506b3          	mul	a3,a0,a3
     9a2:	97b6                	add	a5,a5,a3
     9a4:	43d4                	lw	a3,4(a5)
     9a6:	431c                	lw	a5,0(a4)
     9a8:	9af1                	andi	a3,a3,-4
     9aa:	97b6                	add	a5,a5,a3
     9ac:	0007a023          	sw	zero,0(a5)
     9b0:	4501                	li	a0,0
     9b2:	8082                	ret
     9b4:	0001                	nop
     9b6:	0685                	addi	a3,a3,1
     9b8:	b75d                	j	95e <power_gate_external.constprop.0+0x30>
     9ba:	0001                	nop
     9bc:	0685                	addi	a3,a3,1
     9be:	bf75                	j	97a <power_gate_external.constprop.0+0x4c>
     9c0:	0001                	nop
     9c2:	0685                	addi	a3,a3,1
     9c4:	bfc9                	j	996 <power_gate_external.constprop.0+0x68>
     9c6:	4585                	li	a1,1
     9c8:	c28c                	sw	a1,0(a3)
     9ca:	4681                	li	a3,0
     9cc:	4a4c                	lw	a1,20(a2)
     9ce:	04b6e963          	bltu	a3,a1,a20 <power_gate_external.constprop.0+0xf2>
     9d2:	46f1                	li	a3,28
     9d4:	02d506b3          	mul	a3,a0,a3
     9d8:	96be                	add	a3,a3,a5
     9da:	4a8c                	lw	a1,16(a3)
     9dc:	4314                	lw	a3,0(a4)
     9de:	99f1                	andi	a1,a1,-4
     9e0:	96ae                	add	a3,a3,a1
     9e2:	4585                	li	a1,1
     9e4:	c28c                	sw	a1,0(a3)
     9e6:	4681                	li	a3,0
     9e8:	460c                	lw	a1,8(a2)
     9ea:	02b6ee63          	bltu	a3,a1,a26 <power_gate_external.constprop.0+0xf8>
     9ee:	46f1                	li	a3,28
     9f0:	02d506b3          	mul	a3,a0,a3
     9f4:	96be                	add	a3,a3,a5
     9f6:	468c                	lw	a1,8(a3)
     9f8:	4314                	lw	a3,0(a4)
     9fa:	99f1                	andi	a1,a1,-4
     9fc:	96ae                	add	a3,a3,a1
     9fe:	4585                	li	a1,1
     a00:	c28c                	sw	a1,0(a3)
     a02:	4681                	li	a3,0
     a04:	424c                	lw	a1,4(a2)
     a06:	02b6e363          	bltu	a3,a1,a2c <power_gate_external.constprop.0+0xfe>
     a0a:	46f1                	li	a3,28
     a0c:	02d50533          	mul	a0,a0,a3
     a10:	97aa                	add	a5,a5,a0
     a12:	43d4                	lw	a3,4(a5)
     a14:	431c                	lw	a5,0(a4)
     a16:	4705                	li	a4,1
     a18:	9af1                	andi	a3,a3,-4
     a1a:	97b6                	add	a5,a5,a3
     a1c:	c398                	sw	a4,0(a5)
     a1e:	bf49                	j	9b0 <power_gate_external.constprop.0+0x82>
     a20:	0001                	nop
     a22:	0685                	addi	a3,a3,1
     a24:	b765                	j	9cc <power_gate_external.constprop.0+0x9e>
     a26:	0001                	nop
     a28:	0685                	addi	a3,a3,1
     a2a:	bf7d                	j	9e8 <power_gate_external.constprop.0+0xba>
     a2c:	0001                	nop
     a2e:	0685                	addi	a3,a3,1
     a30:	bfd1                	j	a04 <power_gate_external.constprop.0+0xd6>

00000a32 <print_exc_msg>:
     a32:	85aa                	mv	a1,a0
     a34:	6521                	lui	a0,0x8
     a36:	1141                	addi	sp,sp,-16
     a38:	02050513          	addi	a0,a0,32 # 8020 <no_exception_handler_msg+0x20>
     a3c:	c606                	sw	ra,12(sp)
     a3e:	386010ef          	jal	ra,1dc4 <iprintf>
     a42:	343025f3          	csrr	a1,mtval
     a46:	6521                	lui	a0,0x8
     a48:	02450513          	addi	a0,a0,36 # 8024 <no_exception_handler_msg+0x24>
     a4c:	378010ef          	jal	ra,1dc4 <iprintf>
     a50:	a001                	j	a50 <print_exc_msg+0x1e>

00000a52 <handler_instr_acc_fault>:
     a52:	715d                	addi	sp,sp,-80
     a54:	65a1                	lui	a1,0x8
     a56:	03500613          	li	a2,53
     a5a:	03c58593          	addi	a1,a1,60 # 803c <no_exception_handler_msg+0x3c>
     a5e:	0028                	addi	a0,sp,8
     a60:	c686                	sw	ra,76(sp)
     a62:	314010ef          	jal	ra,1d76 <memcpy>
     a66:	0028                	addi	a0,sp,8
     a68:	37e9                	jal	a32 <print_exc_msg>

00000a6a <handler_lsu_fault>:
     a6a:	715d                	addi	sp,sp,-80
     a6c:	65a1                	lui	a1,0x8
     a6e:	03100613          	li	a2,49
     a72:	07458593          	addi	a1,a1,116 # 8074 <no_exception_handler_msg+0x74>
     a76:	0068                	addi	a0,sp,12
     a78:	c686                	sw	ra,76(sp)
     a7a:	2fc010ef          	jal	ra,1d76 <memcpy>
     a7e:	0068                	addi	a0,sp,12
     a80:	3f4d                	jal	a32 <print_exc_msg>

00000a82 <init>:
     a82:	4501                	li	a0,0
     a84:	8082                	ret

00000a86 <_close>:
     a86:	557d                	li	a0,-1
     a88:	8082                	ret

00000a8a <_exit>:
     a8a:	200007b7          	lui	a5,0x20000
     a8e:	c3c8                	sw	a0,4(a5)
     a90:	4705                	li	a4,1
     a92:	00e78023          	sb	a4,0(a5) # 20000000 <_sp+0x1fff5860>
     a96:	10500073          	wfi

00000a9a <_fstat>:
     a9a:	6789                	lui	a5,0x2
     a9c:	c1dc                	sw	a5,4(a1)
     a9e:	4501                	li	a0,0
     aa0:	8082                	ret

00000aa2 <_isatty>:
     aa2:	157d                	addi	a0,a0,-1
     aa4:	00153513          	seqz	a0,a0
     aa8:	8082                	ret

00000aaa <_lseek>:
     aaa:	4501                	li	a0,0
     aac:	8082                	ret

00000aae <_read>:
     aae:	4501                	li	a0,0
     ab0:	8082                	ret

00000ab2 <_write>:
     ab2:	4785                	li	a5,1
     ab4:	02f50263          	beq	a0,a5,ad8 <_write+0x26>
     ab8:	05800713          	li	a4,88
     abc:	86e1ac23          	sw	a4,-1928(gp) # 86ec <errno>
     ac0:	557d                	li	a0,-1
     ac2:	8082                	ret
     ac4:	05800713          	li	a4,88
     ac8:	86e1ac23          	sw	a4,-1928(gp) # 86ec <errno>
     acc:	557d                	li	a0,-1
     ace:	40b2                	lw	ra,12(sp)
     ad0:	4422                	lw	s0,8(sp)
     ad2:	4492                	lw	s1,4(sp)
     ad4:	0141                	addi	sp,sp,16
     ad6:	8082                	ret
     ad8:	1141                	addi	sp,sp,-16
     ada:	200007b7          	lui	a5,0x20000
     ade:	c422                	sw	s0,8(sp)
     ae0:	8432                	mv	s0,a2
     ae2:	4fd0                	lw	a2,28(a5)
     ae4:	c606                	sw	ra,12(sp)
     ae6:	c226                	sw	s1,4(sp)
     ae8:	de71                	beqz	a2,ac4 <_write+0x12>
     aea:	84ae                	mv	s1,a1
     aec:	4681                	li	a3,0
     aee:	80000537          	lui	a0,0x80000
     af2:	03e00593          	li	a1,62
     af6:	0d4020ef          	jal	ra,2bca <__udivdi3>
     afa:	01051793          	slli	a5,a0,0x10
     afe:	83c1                	srli	a5,a5,0x10
     b00:	fca792e3          	bne	a5,a0,ac4 <_write+0x12>
     b04:	f1e1                	bnez	a1,ac4 <_write+0x12>
     b06:	200b0737          	lui	a4,0x200b0
     b0a:	00072623          	sw	zero,12(a4) # 200b000c <_sp+0x200a586c>
     b0e:	478d                	li	a5,3
     b10:	cf5c                	sw	a5,28(a4)
     b12:	02072223          	sw	zero,36(a4)
     b16:	02072623          	sw	zero,44(a4)
     b1a:	00072223          	sw	zero,4(a4)
     b1e:	57fd                	li	a5,-1
     b20:	c31c                	sw	a5,0(a4)
     b22:	01051793          	slli	a5,a0,0x10
     b26:	0037e793          	ori	a5,a5,3
     b2a:	c75c                	sw	a5,12(a4)
     b2c:	00072223          	sw	zero,4(a4)
     b30:	008486b3          	add	a3,s1,s0
     b34:	00969463          	bne	a3,s1,b3c <_write+0x8a>
     b38:	8522                	mv	a0,s0
     b3a:	bf51                	j	ace <_write+0x1c>
     b3c:	0004c603          	lbu	a2,0(s1)
     b40:	4b1c                	lw	a5,16(a4)
     b42:	8b85                	andi	a5,a5,1
     b44:	fff5                	bnez	a5,b40 <_write+0x8e>
     b46:	cf10                	sw	a2,24(a4)
     b48:	4b1c                	lw	a5,16(a4)
     b4a:	838d                	srli	a5,a5,0x3
     b4c:	8b85                	andi	a5,a5,1
     b4e:	dfed                	beqz	a5,b48 <_write+0x96>
     b50:	0485                	addi	s1,s1,1
     b52:	b7cd                	j	b34 <_write+0x82>

00000b54 <_sbrk>:
     b54:	6725                	lui	a4,0x9
     b56:	86418793          	addi	a5,gp,-1948 # 86d8 <brk>
     b5a:	92018693          	addi	a3,gp,-1760 # 8794 <__BSS_END__>
     b5e:	79470713          	addi	a4,a4,1940 # 9794 <__heap_end>
     b62:	862a                	mv	a2,a0
     b64:	4388                	lw	a0,0(a5)
     b66:	00e68b63          	beq	a3,a4,b7c <_sbrk+0x28>
     b6a:	00c506b3          	add	a3,a0,a2
     b6e:	00e6f563          	bgeu	a3,a4,b78 <_sbrk+0x24>
     b72:	96b2                	add	a3,a3,a2
     b74:	c394                	sw	a3,0(a5)
     b76:	8082                	ret
     b78:	c398                	sw	a4,0(a5)
     b7a:	8082                	ret
     b7c:	4501                	li	a0,0
     b7e:	8082                	ret

00000b80 <handler_exception>:
     b80:	7119                	addi	sp,sp,-128
     b82:	de86                	sw	ra,124(sp)
     b84:	dc96                	sw	t0,120(sp)
     b86:	da9a                	sw	t1,116(sp)
     b88:	d89e                	sw	t2,112(sp)
     b8a:	d6aa                	sw	a0,108(sp)
     b8c:	d4ae                	sw	a1,104(sp)
     b8e:	d2b2                	sw	a2,100(sp)
     b90:	d0b6                	sw	a3,96(sp)
     b92:	ceba                	sw	a4,92(sp)
     b94:	ccbe                	sw	a5,88(sp)
     b96:	cac2                	sw	a6,84(sp)
     b98:	c8c6                	sw	a7,80(sp)
     b9a:	c6f2                	sw	t3,76(sp)
     b9c:	c4f6                	sw	t4,72(sp)
     b9e:	c2fa                	sw	t5,68(sp)
     ba0:	c0fe                	sw	t6,64(sp)
     ba2:	342027f3          	csrr	a5,mcause
     ba6:	472d                	li	a4,11
     ba8:	8bfd                	andi	a5,a5,31
     baa:	04f76063          	bltu	a4,a5,bea <handler_exception+0x6a>
     bae:	6721                	lui	a4,0x8
     bb0:	078a                	slli	a5,a5,0x2
     bb2:	17070713          	addi	a4,a4,368 # 8170 <no_exception_handler_msg+0x170>
     bb6:	97ba                	add	a5,a5,a4
     bb8:	439c                	lw	a5,0(a5)
     bba:	8782                	jr	a5
     bbc:	3d59                	jal	a52 <handler_instr_acc_fault>
     bbe:	65a1                	lui	a1,0x8
     bc0:	03c00613          	li	a2,60
     bc4:	0f858593          	addi	a1,a1,248 # 80f8 <no_exception_handler_msg+0xf8>
     bc8:	0048                	addi	a0,sp,4
     bca:	1ac010ef          	jal	ra,1d76 <memcpy>
     bce:	0048                	addi	a0,sp,4
     bd0:	358d                	jal	a32 <print_exc_msg>
     bd2:	65a1                	lui	a1,0x8
     bd4:	03900613          	li	a2,57
     bd8:	13458593          	addi	a1,a1,308 # 8134 <no_exception_handler_msg+0x134>
     bdc:	b7f5                	j	bc8 <handler_exception+0x48>
     bde:	3571                	jal	a6a <handler_lsu_fault>
     be0:	6521                	lui	a0,0x8
     be2:	0d850513          	addi	a0,a0,216 # 80d8 <no_exception_handler_msg+0xd8>
     be6:	297d                	jal	10a4 <puts>
     be8:	a001                	j	be8 <handler_exception+0x68>
     bea:	a001                	j	bea <handler_exception+0x6a>
     bec:	0000                	unimp
	...

00000bf0 <handler_irq_software>:
     bf0:	7139                	addi	sp,sp,-64
     bf2:	d62a                	sw	a0,44(sp)
     bf4:	6521                	lui	a0,0x8
     bf6:	1a050513          	addi	a0,a0,416 # 81a0 <no_exception_handler_msg+0x1a0>
     bfa:	de06                	sw	ra,60(sp)
     bfc:	dc16                	sw	t0,56(sp)
     bfe:	da1a                	sw	t1,52(sp)
     c00:	d81e                	sw	t2,48(sp)
     c02:	d42e                	sw	a1,40(sp)
     c04:	d232                	sw	a2,36(sp)
     c06:	d036                	sw	a3,32(sp)
     c08:	ce3a                	sw	a4,28(sp)
     c0a:	cc3e                	sw	a5,24(sp)
     c0c:	ca42                	sw	a6,20(sp)
     c0e:	c846                	sw	a7,16(sp)
     c10:	c672                	sw	t3,12(sp)
     c12:	c476                	sw	t4,8(sp)
     c14:	c27a                	sw	t5,4(sp)
     c16:	c07e                	sw	t6,0(sp)
     c18:	2171                	jal	10a4 <puts>
     c1a:	a001                	j	c1a <handler_irq_software+0x2a>
     c1c:	0000                	unimp
	...

00000c20 <handler_irq_timer>:
     c20:	7139                	addi	sp,sp,-64
     c22:	d62a                	sw	a0,44(sp)
     c24:	6521                	lui	a0,0x8
     c26:	1b850513          	addi	a0,a0,440 # 81b8 <no_exception_handler_msg+0x1b8>
     c2a:	de06                	sw	ra,60(sp)
     c2c:	dc16                	sw	t0,56(sp)
     c2e:	da1a                	sw	t1,52(sp)
     c30:	d81e                	sw	t2,48(sp)
     c32:	d42e                	sw	a1,40(sp)
     c34:	d232                	sw	a2,36(sp)
     c36:	d036                	sw	a3,32(sp)
     c38:	ce3a                	sw	a4,28(sp)
     c3a:	cc3e                	sw	a5,24(sp)
     c3c:	ca42                	sw	a6,20(sp)
     c3e:	c846                	sw	a7,16(sp)
     c40:	c672                	sw	t3,12(sp)
     c42:	c476                	sw	t4,8(sp)
     c44:	c27a                	sw	t5,4(sp)
     c46:	c07e                	sw	t6,0(sp)
     c48:	29b1                	jal	10a4 <puts>
     c4a:	a001                	j	c4a <handler_irq_timer+0x2a>
     c4c:	0000                	unimp
	...

00000c50 <handler_irq_external>:
     c50:	7139                	addi	sp,sp,-64
     c52:	d62a                	sw	a0,44(sp)
     c54:	6521                	lui	a0,0x8
     c56:	1d050513          	addi	a0,a0,464 # 81d0 <no_exception_handler_msg+0x1d0>
     c5a:	de06                	sw	ra,60(sp)
     c5c:	dc16                	sw	t0,56(sp)
     c5e:	da1a                	sw	t1,52(sp)
     c60:	d81e                	sw	t2,48(sp)
     c62:	d42e                	sw	a1,40(sp)
     c64:	d232                	sw	a2,36(sp)
     c66:	d036                	sw	a3,32(sp)
     c68:	ce3a                	sw	a4,28(sp)
     c6a:	cc3e                	sw	a5,24(sp)
     c6c:	ca42                	sw	a6,20(sp)
     c6e:	c846                	sw	a7,16(sp)
     c70:	c672                	sw	t3,12(sp)
     c72:	c476                	sw	t4,8(sp)
     c74:	c27a                	sw	t5,4(sp)
     c76:	c07e                	sw	t6,0(sp)
     c78:	2135                	jal	10a4 <puts>
     c7a:	a001                	j	c7a <handler_irq_external+0x2a>
     c7c:	0000                	unimp
	...

00000c80 <handler_irq_fast_timer_1>:
     c80:	7139                	addi	sp,sp,-64
     c82:	d62a                	sw	a0,44(sp)
     c84:	6521                	lui	a0,0x8
     c86:	1e850513          	addi	a0,a0,488 # 81e8 <no_exception_handler_msg+0x1e8>
     c8a:	de06                	sw	ra,60(sp)
     c8c:	dc16                	sw	t0,56(sp)
     c8e:	da1a                	sw	t1,52(sp)
     c90:	d81e                	sw	t2,48(sp)
     c92:	d42e                	sw	a1,40(sp)
     c94:	d232                	sw	a2,36(sp)
     c96:	d036                	sw	a3,32(sp)
     c98:	ce3a                	sw	a4,28(sp)
     c9a:	cc3e                	sw	a5,24(sp)
     c9c:	ca42                	sw	a6,20(sp)
     c9e:	c846                	sw	a7,16(sp)
     ca0:	c672                	sw	t3,12(sp)
     ca2:	c476                	sw	t4,8(sp)
     ca4:	c27a                	sw	t5,4(sp)
     ca6:	c07e                	sw	t6,0(sp)
     ca8:	2ef5                	jal	10a4 <puts>
     caa:	a001                	j	caa <handler_irq_fast_timer_1+0x2a>
     cac:	0000                	unimp
	...

00000cb0 <handler_irq_fast_timer_2>:
     cb0:	7139                	addi	sp,sp,-64
     cb2:	d62a                	sw	a0,44(sp)
     cb4:	6521                	lui	a0,0x8
     cb6:	20450513          	addi	a0,a0,516 # 8204 <no_exception_handler_msg+0x204>
     cba:	de06                	sw	ra,60(sp)
     cbc:	dc16                	sw	t0,56(sp)
     cbe:	da1a                	sw	t1,52(sp)
     cc0:	d81e                	sw	t2,48(sp)
     cc2:	d42e                	sw	a1,40(sp)
     cc4:	d232                	sw	a2,36(sp)
     cc6:	d036                	sw	a3,32(sp)
     cc8:	ce3a                	sw	a4,28(sp)
     cca:	cc3e                	sw	a5,24(sp)
     ccc:	ca42                	sw	a6,20(sp)
     cce:	c846                	sw	a7,16(sp)
     cd0:	c672                	sw	t3,12(sp)
     cd2:	c476                	sw	t4,8(sp)
     cd4:	c27a                	sw	t5,4(sp)
     cd6:	c07e                	sw	t6,0(sp)
     cd8:	26f1                	jal	10a4 <puts>
     cda:	a001                	j	cda <handler_irq_fast_timer_2+0x2a>
     cdc:	0000                	unimp
	...

00000ce0 <handler_irq_fast_timer_3>:
     ce0:	7139                	addi	sp,sp,-64
     ce2:	d62a                	sw	a0,44(sp)
     ce4:	6521                	lui	a0,0x8
     ce6:	22050513          	addi	a0,a0,544 # 8220 <no_exception_handler_msg+0x220>
     cea:	de06                	sw	ra,60(sp)
     cec:	dc16                	sw	t0,56(sp)
     cee:	da1a                	sw	t1,52(sp)
     cf0:	d81e                	sw	t2,48(sp)
     cf2:	d42e                	sw	a1,40(sp)
     cf4:	d232                	sw	a2,36(sp)
     cf6:	d036                	sw	a3,32(sp)
     cf8:	ce3a                	sw	a4,28(sp)
     cfa:	cc3e                	sw	a5,24(sp)
     cfc:	ca42                	sw	a6,20(sp)
     cfe:	c846                	sw	a7,16(sp)
     d00:	c672                	sw	t3,12(sp)
     d02:	c476                	sw	t4,8(sp)
     d04:	c27a                	sw	t5,4(sp)
     d06:	c07e                	sw	t6,0(sp)
     d08:	2e71                	jal	10a4 <puts>
     d0a:	a001                	j	d0a <handler_irq_fast_timer_3+0x2a>
     d0c:	0000                	unimp
	...

00000d10 <handler_irq_fast_dma>:
     d10:	7139                	addi	sp,sp,-64
     d12:	d62a                	sw	a0,44(sp)
     d14:	6521                	lui	a0,0x8
     d16:	23c50513          	addi	a0,a0,572 # 823c <no_exception_handler_msg+0x23c>
     d1a:	de06                	sw	ra,60(sp)
     d1c:	dc16                	sw	t0,56(sp)
     d1e:	da1a                	sw	t1,52(sp)
     d20:	d81e                	sw	t2,48(sp)
     d22:	d42e                	sw	a1,40(sp)
     d24:	d232                	sw	a2,36(sp)
     d26:	d036                	sw	a3,32(sp)
     d28:	ce3a                	sw	a4,28(sp)
     d2a:	cc3e                	sw	a5,24(sp)
     d2c:	ca42                	sw	a6,20(sp)
     d2e:	c846                	sw	a7,16(sp)
     d30:	c672                	sw	t3,12(sp)
     d32:	c476                	sw	t4,8(sp)
     d34:	c27a                	sw	t5,4(sp)
     d36:	c07e                	sw	t6,0(sp)
     d38:	26b5                	jal	10a4 <puts>
     d3a:	a001                	j	d3a <handler_irq_fast_dma+0x2a>
     d3c:	0000                	unimp
	...

00000d40 <handler_irq_fast_spi>:
     d40:	7139                	addi	sp,sp,-64
     d42:	d62a                	sw	a0,44(sp)
     d44:	6521                	lui	a0,0x8
     d46:	25450513          	addi	a0,a0,596 # 8254 <no_exception_handler_msg+0x254>
     d4a:	de06                	sw	ra,60(sp)
     d4c:	dc16                	sw	t0,56(sp)
     d4e:	da1a                	sw	t1,52(sp)
     d50:	d81e                	sw	t2,48(sp)
     d52:	d42e                	sw	a1,40(sp)
     d54:	d232                	sw	a2,36(sp)
     d56:	d036                	sw	a3,32(sp)
     d58:	ce3a                	sw	a4,28(sp)
     d5a:	cc3e                	sw	a5,24(sp)
     d5c:	ca42                	sw	a6,20(sp)
     d5e:	c846                	sw	a7,16(sp)
     d60:	c672                	sw	t3,12(sp)
     d62:	c476                	sw	t4,8(sp)
     d64:	c27a                	sw	t5,4(sp)
     d66:	c07e                	sw	t6,0(sp)
     d68:	2e35                	jal	10a4 <puts>
     d6a:	a001                	j	d6a <handler_irq_fast_spi+0x2a>
     d6c:	0000                	unimp
	...

00000d70 <handler_irq_fast_spi_flash>:
     d70:	7139                	addi	sp,sp,-64
     d72:	d62a                	sw	a0,44(sp)
     d74:	6521                	lui	a0,0x8
     d76:	26c50513          	addi	a0,a0,620 # 826c <no_exception_handler_msg+0x26c>
     d7a:	de06                	sw	ra,60(sp)
     d7c:	dc16                	sw	t0,56(sp)
     d7e:	da1a                	sw	t1,52(sp)
     d80:	d81e                	sw	t2,48(sp)
     d82:	d42e                	sw	a1,40(sp)
     d84:	d232                	sw	a2,36(sp)
     d86:	d036                	sw	a3,32(sp)
     d88:	ce3a                	sw	a4,28(sp)
     d8a:	cc3e                	sw	a5,24(sp)
     d8c:	ca42                	sw	a6,20(sp)
     d8e:	c846                	sw	a7,16(sp)
     d90:	c672                	sw	t3,12(sp)
     d92:	c476                	sw	t4,8(sp)
     d94:	c27a                	sw	t5,4(sp)
     d96:	c07e                	sw	t6,0(sp)
     d98:	2631                	jal	10a4 <puts>
     d9a:	a001                	j	d9a <handler_irq_fast_spi_flash+0x2a>
     d9c:	0000                	unimp
	...

00000da0 <handler_irq_fast_gpio_0>:
     da0:	7139                	addi	sp,sp,-64
     da2:	d62a                	sw	a0,44(sp)
     da4:	6521                	lui	a0,0x8
     da6:	28c50513          	addi	a0,a0,652 # 828c <no_exception_handler_msg+0x28c>
     daa:	de06                	sw	ra,60(sp)
     dac:	dc16                	sw	t0,56(sp)
     dae:	da1a                	sw	t1,52(sp)
     db0:	d81e                	sw	t2,48(sp)
     db2:	d42e                	sw	a1,40(sp)
     db4:	d232                	sw	a2,36(sp)
     db6:	d036                	sw	a3,32(sp)
     db8:	ce3a                	sw	a4,28(sp)
     dba:	cc3e                	sw	a5,24(sp)
     dbc:	ca42                	sw	a6,20(sp)
     dbe:	c846                	sw	a7,16(sp)
     dc0:	c672                	sw	t3,12(sp)
     dc2:	c476                	sw	t4,8(sp)
     dc4:	c27a                	sw	t5,4(sp)
     dc6:	c07e                	sw	t6,0(sp)
     dc8:	2cf1                	jal	10a4 <puts>
     dca:	a001                	j	dca <handler_irq_fast_gpio_0+0x2a>
     dcc:	0000                	unimp
	...

00000dd0 <handler_irq_fast_gpio_1>:
     dd0:	7139                	addi	sp,sp,-64
     dd2:	d62a                	sw	a0,44(sp)
     dd4:	6521                	lui	a0,0x8
     dd6:	2a850513          	addi	a0,a0,680 # 82a8 <no_exception_handler_msg+0x2a8>
     dda:	de06                	sw	ra,60(sp)
     ddc:	dc16                	sw	t0,56(sp)
     dde:	da1a                	sw	t1,52(sp)
     de0:	d81e                	sw	t2,48(sp)
     de2:	d42e                	sw	a1,40(sp)
     de4:	d232                	sw	a2,36(sp)
     de6:	d036                	sw	a3,32(sp)
     de8:	ce3a                	sw	a4,28(sp)
     dea:	cc3e                	sw	a5,24(sp)
     dec:	ca42                	sw	a6,20(sp)
     dee:	c846                	sw	a7,16(sp)
     df0:	c672                	sw	t3,12(sp)
     df2:	c476                	sw	t4,8(sp)
     df4:	c27a                	sw	t5,4(sp)
     df6:	c07e                	sw	t6,0(sp)
     df8:	2475                	jal	10a4 <puts>
     dfa:	a001                	j	dfa <handler_irq_fast_gpio_1+0x2a>
     dfc:	0000                	unimp
	...

00000e00 <handler_irq_fast_gpio_2>:
     e00:	7139                	addi	sp,sp,-64
     e02:	d62a                	sw	a0,44(sp)
     e04:	6521                	lui	a0,0x8
     e06:	2c450513          	addi	a0,a0,708 # 82c4 <no_exception_handler_msg+0x2c4>
     e0a:	de06                	sw	ra,60(sp)
     e0c:	dc16                	sw	t0,56(sp)
     e0e:	da1a                	sw	t1,52(sp)
     e10:	d81e                	sw	t2,48(sp)
     e12:	d42e                	sw	a1,40(sp)
     e14:	d232                	sw	a2,36(sp)
     e16:	d036                	sw	a3,32(sp)
     e18:	ce3a                	sw	a4,28(sp)
     e1a:	cc3e                	sw	a5,24(sp)
     e1c:	ca42                	sw	a6,20(sp)
     e1e:	c846                	sw	a7,16(sp)
     e20:	c672                	sw	t3,12(sp)
     e22:	c476                	sw	t4,8(sp)
     e24:	c27a                	sw	t5,4(sp)
     e26:	c07e                	sw	t6,0(sp)
     e28:	2cb5                	jal	10a4 <puts>
     e2a:	a001                	j	e2a <handler_irq_fast_gpio_2+0x2a>
     e2c:	0000                	unimp
	...

00000e30 <handler_irq_fast_gpio_3>:
     e30:	7139                	addi	sp,sp,-64
     e32:	d62a                	sw	a0,44(sp)
     e34:	6521                	lui	a0,0x8
     e36:	2e050513          	addi	a0,a0,736 # 82e0 <no_exception_handler_msg+0x2e0>
     e3a:	de06                	sw	ra,60(sp)
     e3c:	dc16                	sw	t0,56(sp)
     e3e:	da1a                	sw	t1,52(sp)
     e40:	d81e                	sw	t2,48(sp)
     e42:	d42e                	sw	a1,40(sp)
     e44:	d232                	sw	a2,36(sp)
     e46:	d036                	sw	a3,32(sp)
     e48:	ce3a                	sw	a4,28(sp)
     e4a:	cc3e                	sw	a5,24(sp)
     e4c:	ca42                	sw	a6,20(sp)
     e4e:	c846                	sw	a7,16(sp)
     e50:	c672                	sw	t3,12(sp)
     e52:	c476                	sw	t4,8(sp)
     e54:	c27a                	sw	t5,4(sp)
     e56:	c07e                	sw	t6,0(sp)
     e58:	24b1                	jal	10a4 <puts>
     e5a:	a001                	j	e5a <handler_irq_fast_gpio_3+0x2a>
     e5c:	0000                	unimp
	...

00000e60 <handler_irq_fast_gpio_4>:
     e60:	7139                	addi	sp,sp,-64
     e62:	d62a                	sw	a0,44(sp)
     e64:	6521                	lui	a0,0x8
     e66:	2fc50513          	addi	a0,a0,764 # 82fc <no_exception_handler_msg+0x2fc>
     e6a:	de06                	sw	ra,60(sp)
     e6c:	dc16                	sw	t0,56(sp)
     e6e:	da1a                	sw	t1,52(sp)
     e70:	d81e                	sw	t2,48(sp)
     e72:	d42e                	sw	a1,40(sp)
     e74:	d232                	sw	a2,36(sp)
     e76:	d036                	sw	a3,32(sp)
     e78:	ce3a                	sw	a4,28(sp)
     e7a:	cc3e                	sw	a5,24(sp)
     e7c:	ca42                	sw	a6,20(sp)
     e7e:	c846                	sw	a7,16(sp)
     e80:	c672                	sw	t3,12(sp)
     e82:	c476                	sw	t4,8(sp)
     e84:	c27a                	sw	t5,4(sp)
     e86:	c07e                	sw	t6,0(sp)
     e88:	2c31                	jal	10a4 <puts>
     e8a:	a001                	j	e8a <handler_irq_fast_gpio_4+0x2a>
     e8c:	0000                	unimp
	...

00000e90 <handler_irq_fast_gpio_5>:
     e90:	7139                	addi	sp,sp,-64
     e92:	d62a                	sw	a0,44(sp)
     e94:	6521                	lui	a0,0x8
     e96:	31850513          	addi	a0,a0,792 # 8318 <no_exception_handler_msg+0x318>
     e9a:	de06                	sw	ra,60(sp)
     e9c:	dc16                	sw	t0,56(sp)
     e9e:	da1a                	sw	t1,52(sp)
     ea0:	d81e                	sw	t2,48(sp)
     ea2:	d42e                	sw	a1,40(sp)
     ea4:	d232                	sw	a2,36(sp)
     ea6:	d036                	sw	a3,32(sp)
     ea8:	ce3a                	sw	a4,28(sp)
     eaa:	cc3e                	sw	a5,24(sp)
     eac:	ca42                	sw	a6,20(sp)
     eae:	c846                	sw	a7,16(sp)
     eb0:	c672                	sw	t3,12(sp)
     eb2:	c476                	sw	t4,8(sp)
     eb4:	c27a                	sw	t5,4(sp)
     eb6:	c07e                	sw	t6,0(sp)
     eb8:	22f5                	jal	10a4 <puts>
     eba:	a001                	j	eba <handler_irq_fast_gpio_5+0x2a>
     ebc:	0000                	unimp
	...

00000ec0 <handler_irq_fast_gpio_6>:
     ec0:	7139                	addi	sp,sp,-64
     ec2:	d62a                	sw	a0,44(sp)
     ec4:	6521                	lui	a0,0x8
     ec6:	33450513          	addi	a0,a0,820 # 8334 <no_exception_handler_msg+0x334>
     eca:	de06                	sw	ra,60(sp)
     ecc:	dc16                	sw	t0,56(sp)
     ece:	da1a                	sw	t1,52(sp)
     ed0:	d81e                	sw	t2,48(sp)
     ed2:	d42e                	sw	a1,40(sp)
     ed4:	d232                	sw	a2,36(sp)
     ed6:	d036                	sw	a3,32(sp)
     ed8:	ce3a                	sw	a4,28(sp)
     eda:	cc3e                	sw	a5,24(sp)
     edc:	ca42                	sw	a6,20(sp)
     ede:	c846                	sw	a7,16(sp)
     ee0:	c672                	sw	t3,12(sp)
     ee2:	c476                	sw	t4,8(sp)
     ee4:	c27a                	sw	t5,4(sp)
     ee6:	c07e                	sw	t6,0(sp)
     ee8:	2a75                	jal	10a4 <puts>
     eea:	a001                	j	eea <handler_irq_fast_gpio_6+0x2a>
     eec:	0000                	unimp
	...

00000ef0 <handler_irq_fast_gpio_7>:
     ef0:	7139                	addi	sp,sp,-64
     ef2:	d62a                	sw	a0,44(sp)
     ef4:	6521                	lui	a0,0x8
     ef6:	35050513          	addi	a0,a0,848 # 8350 <no_exception_handler_msg+0x350>
     efa:	de06                	sw	ra,60(sp)
     efc:	dc16                	sw	t0,56(sp)
     efe:	da1a                	sw	t1,52(sp)
     f00:	d81e                	sw	t2,48(sp)
     f02:	d42e                	sw	a1,40(sp)
     f04:	d232                	sw	a2,36(sp)
     f06:	d036                	sw	a3,32(sp)
     f08:	ce3a                	sw	a4,28(sp)
     f0a:	cc3e                	sw	a5,24(sp)
     f0c:	ca42                	sw	a6,20(sp)
     f0e:	c846                	sw	a7,16(sp)
     f10:	c672                	sw	t3,12(sp)
     f12:	c476                	sw	t4,8(sp)
     f14:	c27a                	sw	t5,4(sp)
     f16:	c07e                	sw	t6,0(sp)
     f18:	2271                	jal	10a4 <puts>
     f1a:	a001                	j	f1a <handler_irq_fast_gpio_7+0x2a>
	...

00000f1e <atexit>:
     f1e:	85aa                	mv	a1,a0
     f20:	4681                	li	a3,0
     f22:	4601                	li	a2,0
     f24:	4501                	li	a0,0
     f26:	a189                	j	1368 <__register_exitproc>

00000f28 <__libc_fini_array>:
     f28:	1141                	addi	sp,sp,-16
     f2a:	67a1                	lui	a5,0x8
     f2c:	c422                	sw	s0,8(sp)
     f2e:	6421                	lui	s0,0x8
     f30:	67478713          	addi	a4,a5,1652 # 8674 <impure_data>
     f34:	67440413          	addi	s0,s0,1652 # 8674 <impure_data>
     f38:	8c19                	sub	s0,s0,a4
     f3a:	c226                	sw	s1,4(sp)
     f3c:	c606                	sw	ra,12(sp)
     f3e:	8409                	srai	s0,s0,0x2
     f40:	67478493          	addi	s1,a5,1652
     f44:	e411                	bnez	s0,f50 <__libc_fini_array+0x28>
     f46:	40b2                	lw	ra,12(sp)
     f48:	4422                	lw	s0,8(sp)
     f4a:	4492                	lw	s1,4(sp)
     f4c:	0141                	addi	sp,sp,16
     f4e:	8082                	ret
     f50:	147d                	addi	s0,s0,-1
     f52:	00241793          	slli	a5,s0,0x2
     f56:	97a6                	add	a5,a5,s1
     f58:	439c                	lw	a5,0(a5)
     f5a:	9782                	jalr	a5
     f5c:	b7e5                	j	f44 <__libc_fini_array+0x1c>

00000f5e <__libc_init_array>:
     f5e:	1141                	addi	sp,sp,-16
     f60:	c422                	sw	s0,8(sp)
     f62:	c226                	sw	s1,4(sp)
     f64:	6421                	lui	s0,0x8
     f66:	64a1                	lui	s1,0x8
     f68:	67448793          	addi	a5,s1,1652 # 8674 <impure_data>
     f6c:	67440413          	addi	s0,s0,1652 # 8674 <impure_data>
     f70:	8c1d                	sub	s0,s0,a5
     f72:	c04a                	sw	s2,0(sp)
     f74:	c606                	sw	ra,12(sp)
     f76:	8409                	srai	s0,s0,0x2
     f78:	67448493          	addi	s1,s1,1652
     f7c:	4901                	li	s2,0
     f7e:	02891563          	bne	s2,s0,fa8 <__libc_init_array+0x4a>
     f82:	64a1                	lui	s1,0x8
     f84:	6421                	lui	s0,0x8
     f86:	67448793          	addi	a5,s1,1652 # 8674 <impure_data>
     f8a:	67440413          	addi	s0,s0,1652 # 8674 <impure_data>
     f8e:	8c1d                	sub	s0,s0,a5
     f90:	8409                	srai	s0,s0,0x2
     f92:	67448493          	addi	s1,s1,1652
     f96:	4901                	li	s2,0
     f98:	00891d63          	bne	s2,s0,fb2 <__libc_init_array+0x54>
     f9c:	40b2                	lw	ra,12(sp)
     f9e:	4422                	lw	s0,8(sp)
     fa0:	4492                	lw	s1,4(sp)
     fa2:	4902                	lw	s2,0(sp)
     fa4:	0141                	addi	sp,sp,16
     fa6:	8082                	ret
     fa8:	409c                	lw	a5,0(s1)
     faa:	0905                	addi	s2,s2,1
     fac:	0491                	addi	s1,s1,4
     fae:	9782                	jalr	a5
     fb0:	b7f9                	j	f7e <__libc_init_array+0x20>
     fb2:	409c                	lw	a5,0(s1)
     fb4:	0905                	addi	s2,s2,1
     fb6:	0491                	addi	s1,s1,4
     fb8:	9782                	jalr	a5
     fba:	bff9                	j	f98 <__libc_init_array+0x3a>

00000fbc <memset>:
     fbc:	832a                	mv	t1,a0
     fbe:	c611                	beqz	a2,fca <memset+0xe>
     fc0:	00b30023          	sb	a1,0(t1)
     fc4:	167d                	addi	a2,a2,-1
     fc6:	0305                	addi	t1,t1,1
     fc8:	fe65                	bnez	a2,fc0 <memset+0x4>
     fca:	8082                	ret

00000fcc <_puts_r>:
     fcc:	1101                	addi	sp,sp,-32
     fce:	ca26                	sw	s1,20(sp)
     fd0:	c84a                	sw	s2,16(sp)
     fd2:	ce06                	sw	ra,28(sp)
     fd4:	cc22                	sw	s0,24(sp)
     fd6:	c64e                	sw	s3,12(sp)
     fd8:	c452                	sw	s4,8(sp)
     fda:	84aa                	mv	s1,a0
     fdc:	892e                	mv	s2,a1
     fde:	c509                	beqz	a0,fe8 <_puts_r+0x1c>
     fe0:	4d1c                	lw	a5,24(a0)
     fe2:	e399                	bnez	a5,fe8 <_puts_r+0x1c>
     fe4:	73c000ef          	jal	ra,1720 <__sinit>
     fe8:	4c9c                	lw	a5,24(s1)
     fea:	4480                	lw	s0,8(s1)
     fec:	e781                	bnez	a5,ff4 <_puts_r+0x28>
     fee:	8526                	mv	a0,s1
     ff0:	730000ef          	jal	ra,1720 <__sinit>
     ff4:	67a1                	lui	a5,0x8
     ff6:	4a078793          	addi	a5,a5,1184 # 84a0 <__sf_fake_stdin>
     ffa:	02f41c63          	bne	s0,a5,1032 <__heap_size+0x32>
     ffe:	40c0                	lw	s0,4(s1)
    1000:	00c45783          	lhu	a5,12(s0)
    1004:	8ba1                	andi	a5,a5,8
    1006:	c7a1                	beqz	a5,104e <__heap_size+0x4e>
    1008:	481c                	lw	a5,16(s0)
    100a:	c3b1                	beqz	a5,104e <__heap_size+0x4e>
    100c:	59fd                	li	s3,-1
    100e:	4a29                	li	s4,10
    1010:	441c                	lw	a5,8(s0)
    1012:	00094583          	lbu	a1,0(s2)
    1016:	17fd                	addi	a5,a5,-1
    1018:	e9a1                	bnez	a1,1068 <__heap_size+0x68>
    101a:	c41c                	sw	a5,8(s0)
    101c:	0607dc63          	bgez	a5,1094 <__heap_size+0x94>
    1020:	8622                	mv	a2,s0
    1022:	45a9                	li	a1,10
    1024:	8526                	mv	a0,s1
    1026:	2ab5                	jal	11a2 <__swbuf_r>
    1028:	57fd                	li	a5,-1
    102a:	02f50663          	beq	a0,a5,1056 <__heap_size+0x56>
    102e:	4529                	li	a0,10
    1030:	a025                	j	1058 <__heap_size+0x58>
    1032:	67a1                	lui	a5,0x8
    1034:	4c078793          	addi	a5,a5,1216 # 84c0 <__sf_fake_stdout>
    1038:	00f41463          	bne	s0,a5,1040 <__heap_size+0x40>
    103c:	4480                	lw	s0,8(s1)
    103e:	b7c9                	j	1000 <__heap_size>
    1040:	67a1                	lui	a5,0x8
    1042:	48078793          	addi	a5,a5,1152 # 8480 <__sf_fake_stderr>
    1046:	faf41de3          	bne	s0,a5,1000 <__heap_size>
    104a:	44c0                	lw	s0,12(s1)
    104c:	bf55                	j	1000 <__heap_size>
    104e:	85a2                	mv	a1,s0
    1050:	8526                	mv	a0,s1
    1052:	2c11                	jal	1266 <__swsetup_r>
    1054:	dd45                	beqz	a0,100c <__heap_size+0xc>
    1056:	557d                	li	a0,-1
    1058:	40f2                	lw	ra,28(sp)
    105a:	4462                	lw	s0,24(sp)
    105c:	44d2                	lw	s1,20(sp)
    105e:	4942                	lw	s2,16(sp)
    1060:	49b2                	lw	s3,12(sp)
    1062:	4a22                	lw	s4,8(sp)
    1064:	6105                	addi	sp,sp,32
    1066:	8082                	ret
    1068:	c41c                	sw	a5,8(s0)
    106a:	0905                	addi	s2,s2,1
    106c:	0007d763          	bgez	a5,107a <__heap_size+0x7a>
    1070:	4c18                	lw	a4,24(s0)
    1072:	00e7cb63          	blt	a5,a4,1088 <__heap_size+0x88>
    1076:	01458963          	beq	a1,s4,1088 <__heap_size+0x88>
    107a:	401c                	lw	a5,0(s0)
    107c:	00178713          	addi	a4,a5,1
    1080:	c018                	sw	a4,0(s0)
    1082:	00b78023          	sb	a1,0(a5)
    1086:	b769                	j	1010 <__heap_size+0x10>
    1088:	8622                	mv	a2,s0
    108a:	8526                	mv	a0,s1
    108c:	2a19                	jal	11a2 <__swbuf_r>
    108e:	f93511e3          	bne	a0,s3,1010 <__heap_size+0x10>
    1092:	b7d1                	j	1056 <__heap_size+0x56>
    1094:	401c                	lw	a5,0(s0)
    1096:	00178713          	addi	a4,a5,1
    109a:	c018                	sw	a4,0(s0)
    109c:	4729                	li	a4,10
    109e:	00e78023          	sb	a4,0(a5)
    10a2:	b771                	j	102e <__heap_size+0x2e>

000010a4 <puts>:
    10a4:	85aa                	mv	a1,a0
    10a6:	8681a503          	lw	a0,-1944(gp) # 86dc <_impure_ptr>
    10aa:	b70d                	j	fcc <_puts_r>

000010ac <cleanup_glue>:
    10ac:	1141                	addi	sp,sp,-16
    10ae:	c422                	sw	s0,8(sp)
    10b0:	842e                	mv	s0,a1
    10b2:	418c                	lw	a1,0(a1)
    10b4:	c226                	sw	s1,4(sp)
    10b6:	c606                	sw	ra,12(sp)
    10b8:	84aa                	mv	s1,a0
    10ba:	c191                	beqz	a1,10be <cleanup_glue+0x12>
    10bc:	3fc5                	jal	10ac <cleanup_glue>
    10be:	85a2                	mv	a1,s0
    10c0:	4422                	lw	s0,8(sp)
    10c2:	40b2                	lw	ra,12(sp)
    10c4:	8526                	mv	a0,s1
    10c6:	4492                	lw	s1,4(sp)
    10c8:	0141                	addi	sp,sp,16
    10ca:	1370006f          	j	1a00 <_free_r>

000010ce <_reclaim_reent>:
    10ce:	8681a783          	lw	a5,-1944(gp) # 86dc <_impure_ptr>
    10d2:	0ca78763          	beq	a5,a0,11a0 <_reclaim_reent+0xd2>
    10d6:	515c                	lw	a5,36(a0)
    10d8:	1101                	addi	sp,sp,-32
    10da:	cc22                	sw	s0,24(sp)
    10dc:	ce06                	sw	ra,28(sp)
    10de:	ca26                	sw	s1,20(sp)
    10e0:	c84a                	sw	s2,16(sp)
    10e2:	c64e                	sw	s3,12(sp)
    10e4:	842a                	mv	s0,a0
    10e6:	cf81                	beqz	a5,10fe <_reclaim_reent+0x30>
    10e8:	47dc                	lw	a5,12(a5)
    10ea:	4481                	li	s1,0
    10ec:	08000913          	li	s2,128
    10f0:	e3d1                	bnez	a5,1174 <_reclaim_reent+0xa6>
    10f2:	505c                	lw	a5,36(s0)
    10f4:	438c                	lw	a1,0(a5)
    10f6:	c581                	beqz	a1,10fe <_reclaim_reent+0x30>
    10f8:	8522                	mv	a0,s0
    10fa:	107000ef          	jal	ra,1a00 <_free_r>
    10fe:	484c                	lw	a1,20(s0)
    1100:	c581                	beqz	a1,1108 <_reclaim_reent+0x3a>
    1102:	8522                	mv	a0,s0
    1104:	0fd000ef          	jal	ra,1a00 <_free_r>
    1108:	504c                	lw	a1,36(s0)
    110a:	c581                	beqz	a1,1112 <_reclaim_reent+0x44>
    110c:	8522                	mv	a0,s0
    110e:	0f3000ef          	jal	ra,1a00 <_free_r>
    1112:	5c0c                	lw	a1,56(s0)
    1114:	c581                	beqz	a1,111c <_reclaim_reent+0x4e>
    1116:	8522                	mv	a0,s0
    1118:	0e9000ef          	jal	ra,1a00 <_free_r>
    111c:	5c4c                	lw	a1,60(s0)
    111e:	c581                	beqz	a1,1126 <_reclaim_reent+0x58>
    1120:	8522                	mv	a0,s0
    1122:	0df000ef          	jal	ra,1a00 <_free_r>
    1126:	402c                	lw	a1,64(s0)
    1128:	c581                	beqz	a1,1130 <_reclaim_reent+0x62>
    112a:	8522                	mv	a0,s0
    112c:	0d5000ef          	jal	ra,1a00 <_free_r>
    1130:	4c6c                	lw	a1,92(s0)
    1132:	c581                	beqz	a1,113a <_reclaim_reent+0x6c>
    1134:	8522                	mv	a0,s0
    1136:	0cb000ef          	jal	ra,1a00 <_free_r>
    113a:	4c2c                	lw	a1,88(s0)
    113c:	c581                	beqz	a1,1144 <_reclaim_reent+0x76>
    113e:	8522                	mv	a0,s0
    1140:	0c1000ef          	jal	ra,1a00 <_free_r>
    1144:	584c                	lw	a1,52(s0)
    1146:	c581                	beqz	a1,114e <_reclaim_reent+0x80>
    1148:	8522                	mv	a0,s0
    114a:	0b7000ef          	jal	ra,1a00 <_free_r>
    114e:	4c1c                	lw	a5,24(s0)
    1150:	c3a9                	beqz	a5,1192 <_reclaim_reent+0xc4>
    1152:	541c                	lw	a5,40(s0)
    1154:	8522                	mv	a0,s0
    1156:	9782                	jalr	a5
    1158:	442c                	lw	a1,72(s0)
    115a:	cd85                	beqz	a1,1192 <_reclaim_reent+0xc4>
    115c:	8522                	mv	a0,s0
    115e:	4462                	lw	s0,24(sp)
    1160:	40f2                	lw	ra,28(sp)
    1162:	44d2                	lw	s1,20(sp)
    1164:	4942                	lw	s2,16(sp)
    1166:	49b2                	lw	s3,12(sp)
    1168:	6105                	addi	sp,sp,32
    116a:	b789                	j	10ac <cleanup_glue>
    116c:	95a6                	add	a1,a1,s1
    116e:	418c                	lw	a1,0(a1)
    1170:	e991                	bnez	a1,1184 <_reclaim_reent+0xb6>
    1172:	0491                	addi	s1,s1,4
    1174:	505c                	lw	a5,36(s0)
    1176:	47cc                	lw	a1,12(a5)
    1178:	ff249ae3          	bne	s1,s2,116c <_reclaim_reent+0x9e>
    117c:	8522                	mv	a0,s0
    117e:	083000ef          	jal	ra,1a00 <_free_r>
    1182:	bf85                	j	10f2 <_reclaim_reent+0x24>
    1184:	0005a983          	lw	s3,0(a1)
    1188:	8522                	mv	a0,s0
    118a:	077000ef          	jal	ra,1a00 <_free_r>
    118e:	85ce                	mv	a1,s3
    1190:	b7c5                	j	1170 <_reclaim_reent+0xa2>
    1192:	40f2                	lw	ra,28(sp)
    1194:	4462                	lw	s0,24(sp)
    1196:	44d2                	lw	s1,20(sp)
    1198:	4942                	lw	s2,16(sp)
    119a:	49b2                	lw	s3,12(sp)
    119c:	6105                	addi	sp,sp,32
    119e:	8082                	ret
    11a0:	8082                	ret

000011a2 <__swbuf_r>:
    11a2:	1101                	addi	sp,sp,-32
    11a4:	cc22                	sw	s0,24(sp)
    11a6:	ca26                	sw	s1,20(sp)
    11a8:	c84a                	sw	s2,16(sp)
    11aa:	ce06                	sw	ra,28(sp)
    11ac:	c64e                	sw	s3,12(sp)
    11ae:	84aa                	mv	s1,a0
    11b0:	892e                	mv	s2,a1
    11b2:	8432                	mv	s0,a2
    11b4:	c501                	beqz	a0,11bc <__swbuf_r+0x1a>
    11b6:	4d1c                	lw	a5,24(a0)
    11b8:	e391                	bnez	a5,11bc <__swbuf_r+0x1a>
    11ba:	239d                	jal	1720 <__sinit>
    11bc:	67a1                	lui	a5,0x8
    11be:	4a078793          	addi	a5,a5,1184 # 84a0 <__sf_fake_stdin>
    11c2:	06f41963          	bne	s0,a5,1234 <__swbuf_r+0x92>
    11c6:	40c0                	lw	s0,4(s1)
    11c8:	4c1c                	lw	a5,24(s0)
    11ca:	c41c                	sw	a5,8(s0)
    11cc:	00c45783          	lhu	a5,12(s0)
    11d0:	8ba1                	andi	a5,a5,8
    11d2:	cfbd                	beqz	a5,1250 <__swbuf_r+0xae>
    11d4:	481c                	lw	a5,16(s0)
    11d6:	cfad                	beqz	a5,1250 <__swbuf_r+0xae>
    11d8:	481c                	lw	a5,16(s0)
    11da:	4008                	lw	a0,0(s0)
    11dc:	0ff97993          	zext.b	s3,s2
    11e0:	0ff97913          	zext.b	s2,s2
    11e4:	8d1d                	sub	a0,a0,a5
    11e6:	485c                	lw	a5,20(s0)
    11e8:	00f54663          	blt	a0,a5,11f4 <__swbuf_r+0x52>
    11ec:	85a2                	mv	a1,s0
    11ee:	8526                	mv	a0,s1
    11f0:	2efd                	jal	15ee <_fflush_r>
    11f2:	e13d                	bnez	a0,1258 <__swbuf_r+0xb6>
    11f4:	441c                	lw	a5,8(s0)
    11f6:	0505                	addi	a0,a0,1
    11f8:	17fd                	addi	a5,a5,-1
    11fa:	c41c                	sw	a5,8(s0)
    11fc:	401c                	lw	a5,0(s0)
    11fe:	00178713          	addi	a4,a5,1
    1202:	c018                	sw	a4,0(s0)
    1204:	01378023          	sb	s3,0(a5)
    1208:	485c                	lw	a5,20(s0)
    120a:	00a78963          	beq	a5,a0,121c <__swbuf_r+0x7a>
    120e:	00c45783          	lhu	a5,12(s0)
    1212:	8b85                	andi	a5,a5,1
    1214:	cb81                	beqz	a5,1224 <__swbuf_r+0x82>
    1216:	47a9                	li	a5,10
    1218:	00f91663          	bne	s2,a5,1224 <__swbuf_r+0x82>
    121c:	85a2                	mv	a1,s0
    121e:	8526                	mv	a0,s1
    1220:	26f9                	jal	15ee <_fflush_r>
    1222:	e91d                	bnez	a0,1258 <__swbuf_r+0xb6>
    1224:	40f2                	lw	ra,28(sp)
    1226:	4462                	lw	s0,24(sp)
    1228:	44d2                	lw	s1,20(sp)
    122a:	49b2                	lw	s3,12(sp)
    122c:	854a                	mv	a0,s2
    122e:	4942                	lw	s2,16(sp)
    1230:	6105                	addi	sp,sp,32
    1232:	8082                	ret
    1234:	67a1                	lui	a5,0x8
    1236:	4c078793          	addi	a5,a5,1216 # 84c0 <__sf_fake_stdout>
    123a:	00f41463          	bne	s0,a5,1242 <__swbuf_r+0xa0>
    123e:	4480                	lw	s0,8(s1)
    1240:	b761                	j	11c8 <__swbuf_r+0x26>
    1242:	67a1                	lui	a5,0x8
    1244:	48078793          	addi	a5,a5,1152 # 8480 <__sf_fake_stderr>
    1248:	f8f410e3          	bne	s0,a5,11c8 <__swbuf_r+0x26>
    124c:	44c0                	lw	s0,12(s1)
    124e:	bfad                	j	11c8 <__swbuf_r+0x26>
    1250:	85a2                	mv	a1,s0
    1252:	8526                	mv	a0,s1
    1254:	2809                	jal	1266 <__swsetup_r>
    1256:	d149                	beqz	a0,11d8 <__swbuf_r+0x36>
    1258:	597d                	li	s2,-1
    125a:	b7e9                	j	1224 <__swbuf_r+0x82>

0000125c <__swbuf>:
    125c:	862e                	mv	a2,a1
    125e:	85aa                	mv	a1,a0
    1260:	8681a503          	lw	a0,-1944(gp) # 86dc <_impure_ptr>
    1264:	bf3d                	j	11a2 <__swbuf_r>

00001266 <__swsetup_r>:
    1266:	1141                	addi	sp,sp,-16
    1268:	c226                	sw	s1,4(sp)
    126a:	8681a483          	lw	s1,-1944(gp) # 86dc <_impure_ptr>
    126e:	c422                	sw	s0,8(sp)
    1270:	c04a                	sw	s2,0(sp)
    1272:	c606                	sw	ra,12(sp)
    1274:	892a                	mv	s2,a0
    1276:	842e                	mv	s0,a1
    1278:	c489                	beqz	s1,1282 <__swsetup_r+0x1c>
    127a:	4c9c                	lw	a5,24(s1)
    127c:	e399                	bnez	a5,1282 <__swsetup_r+0x1c>
    127e:	8526                	mv	a0,s1
    1280:	2145                	jal	1720 <__sinit>
    1282:	67a1                	lui	a5,0x8
    1284:	4a078793          	addi	a5,a5,1184 # 84a0 <__sf_fake_stdin>
    1288:	02f41763          	bne	s0,a5,12b6 <__swsetup_r+0x50>
    128c:	40c0                	lw	s0,4(s1)
    128e:	00c41783          	lh	a5,12(s0)
    1292:	01079713          	slli	a4,a5,0x10
    1296:	0087f693          	andi	a3,a5,8
    129a:	8341                	srli	a4,a4,0x10
    129c:	eaa5                	bnez	a3,130c <__swsetup_r+0xa6>
    129e:	01077693          	andi	a3,a4,16
    12a2:	ea85                	bnez	a3,12d2 <__swsetup_r+0x6c>
    12a4:	4725                	li	a4,9
    12a6:	00e92023          	sw	a4,0(s2)
    12aa:	0407e793          	ori	a5,a5,64
    12ae:	00f41623          	sh	a5,12(s0)
    12b2:	557d                	li	a0,-1
    12b4:	a869                	j	134e <__swsetup_r+0xe8>
    12b6:	67a1                	lui	a5,0x8
    12b8:	4c078793          	addi	a5,a5,1216 # 84c0 <__sf_fake_stdout>
    12bc:	00f41463          	bne	s0,a5,12c4 <__swsetup_r+0x5e>
    12c0:	4480                	lw	s0,8(s1)
    12c2:	b7f1                	j	128e <__swsetup_r+0x28>
    12c4:	67a1                	lui	a5,0x8
    12c6:	48078793          	addi	a5,a5,1152 # 8480 <__sf_fake_stderr>
    12ca:	fcf412e3          	bne	s0,a5,128e <__swsetup_r+0x28>
    12ce:	44c0                	lw	s0,12(s1)
    12d0:	bf7d                	j	128e <__swsetup_r+0x28>
    12d2:	8b11                	andi	a4,a4,4
    12d4:	c715                	beqz	a4,1300 <__swsetup_r+0x9a>
    12d6:	584c                	lw	a1,52(s0)
    12d8:	c991                	beqz	a1,12ec <__swsetup_r+0x86>
    12da:	04440793          	addi	a5,s0,68
    12de:	00f58563          	beq	a1,a5,12e8 <__swsetup_r+0x82>
    12e2:	854a                	mv	a0,s2
    12e4:	71c000ef          	jal	ra,1a00 <_free_r>
    12e8:	02042a23          	sw	zero,52(s0)
    12ec:	00c45783          	lhu	a5,12(s0)
    12f0:	00042223          	sw	zero,4(s0)
    12f4:	fdb7f793          	andi	a5,a5,-37
    12f8:	00f41623          	sh	a5,12(s0)
    12fc:	481c                	lw	a5,16(s0)
    12fe:	c01c                	sw	a5,0(s0)
    1300:	00c45783          	lhu	a5,12(s0)
    1304:	0087e793          	ori	a5,a5,8
    1308:	00f41623          	sh	a5,12(s0)
    130c:	481c                	lw	a5,16(s0)
    130e:	ef81                	bnez	a5,1326 <__swsetup_r+0xc0>
    1310:	00c45783          	lhu	a5,12(s0)
    1314:	20000713          	li	a4,512
    1318:	2807f793          	andi	a5,a5,640
    131c:	00e78563          	beq	a5,a4,1326 <__swsetup_r+0xc0>
    1320:	85a2                	mv	a1,s0
    1322:	854a                	mv	a0,s2
    1324:	2589                	jal	1966 <__smakebuf_r>
    1326:	00c41783          	lh	a5,12(s0)
    132a:	01079713          	slli	a4,a5,0x10
    132e:	0017f693          	andi	a3,a5,1
    1332:	8341                	srli	a4,a4,0x10
    1334:	c29d                	beqz	a3,135a <__swsetup_r+0xf4>
    1336:	4854                	lw	a3,20(s0)
    1338:	00042423          	sw	zero,8(s0)
    133c:	40d006b3          	neg	a3,a3
    1340:	cc14                	sw	a3,24(s0)
    1342:	4814                	lw	a3,16(s0)
    1344:	4501                	li	a0,0
    1346:	e681                	bnez	a3,134e <__swsetup_r+0xe8>
    1348:	08077713          	andi	a4,a4,128
    134c:	ff39                	bnez	a4,12aa <__swsetup_r+0x44>
    134e:	40b2                	lw	ra,12(sp)
    1350:	4422                	lw	s0,8(sp)
    1352:	4492                	lw	s1,4(sp)
    1354:	4902                	lw	s2,0(sp)
    1356:	0141                	addi	sp,sp,16
    1358:	8082                	ret
    135a:	00277693          	andi	a3,a4,2
    135e:	4601                	li	a2,0
    1360:	e291                	bnez	a3,1364 <__swsetup_r+0xfe>
    1362:	4850                	lw	a2,20(s0)
    1364:	c410                	sw	a2,8(s0)
    1366:	bff1                	j	1342 <__swsetup_r+0xdc>

00001368 <__register_exitproc>:
    1368:	87c1a783          	lw	a5,-1924(gp) # 86f0 <_global_atexit>
    136c:	88aa                	mv	a7,a0
    136e:	e38d                	bnez	a5,1390 <__register_exitproc+0x28>
    1370:	89418513          	addi	a0,gp,-1900 # 8708 <_global_atexit0>
    1374:	86a1ae23          	sw	a0,-1924(gp) # 86f0 <_global_atexit>
    1378:	00000313          	li	t1,0
    137c:	89418793          	addi	a5,gp,-1900 # 8708 <_global_atexit0>
    1380:	00030863          	beqz	t1,1390 <__register_exitproc+0x28>
    1384:	00002783          	lw	a5,0(zero) # 0 <__vector_start>
    1388:	08f52423          	sw	a5,136(a0)
    138c:	89418793          	addi	a5,gp,-1900 # 8708 <_global_atexit0>
    1390:	43d8                	lw	a4,4(a5)
    1392:	487d                	li	a6,31
    1394:	557d                	li	a0,-1
    1396:	04e84663          	blt	a6,a4,13e2 <__register_exitproc+0x7a>
    139a:	02088d63          	beqz	a7,13d4 <__register_exitproc+0x6c>
    139e:	0887a803          	lw	a6,136(a5)
    13a2:	04080063          	beqz	a6,13e2 <__register_exitproc+0x7a>
    13a6:	00271513          	slli	a0,a4,0x2
    13aa:	9542                	add	a0,a0,a6
    13ac:	c110                	sw	a2,0(a0)
    13ae:	10082303          	lw	t1,256(a6) # 20050100 <_sp+0x20045960>
    13b2:	4605                	li	a2,1
    13b4:	00e61633          	sll	a2,a2,a4
    13b8:	00c36333          	or	t1,t1,a2
    13bc:	10682023          	sw	t1,256(a6)
    13c0:	08d52023          	sw	a3,128(a0)
    13c4:	4689                	li	a3,2
    13c6:	00d89763          	bne	a7,a3,13d4 <__register_exitproc+0x6c>
    13ca:	10482683          	lw	a3,260(a6)
    13ce:	8ed1                	or	a3,a3,a2
    13d0:	10d82223          	sw	a3,260(a6)
    13d4:	00170693          	addi	a3,a4,1
    13d8:	070a                	slli	a4,a4,0x2
    13da:	c3d4                	sw	a3,4(a5)
    13dc:	97ba                	add	a5,a5,a4
    13de:	c78c                	sw	a1,8(a5)
    13e0:	4501                	li	a0,0
    13e2:	8082                	ret

000013e4 <__call_exitprocs>:
    13e4:	7179                	addi	sp,sp,-48
    13e6:	c85a                	sw	s6,16(sp)
    13e8:	ca56                	sw	s5,20(sp)
    13ea:	c65e                	sw	s7,12(sp)
    13ec:	c462                	sw	s8,8(sp)
    13ee:	d606                	sw	ra,44(sp)
    13f0:	d422                	sw	s0,40(sp)
    13f2:	d226                	sw	s1,36(sp)
    13f4:	d04a                	sw	s2,32(sp)
    13f6:	ce4e                	sw	s3,28(sp)
    13f8:	cc52                	sw	s4,24(sp)
    13fa:	c266                	sw	s9,4(sp)
    13fc:	8baa                	mv	s7,a0
    13fe:	8aae                	mv	s5,a1
    1400:	87c18b13          	addi	s6,gp,-1924 # 86f0 <_global_atexit>
    1404:	4c05                	li	s8,1
    1406:	000b2483          	lw	s1,0(s6)
    140a:	cc81                	beqz	s1,1422 <__call_exitprocs+0x3e>
    140c:	40c0                	lw	s0,4(s1)
    140e:	0884a983          	lw	s3,136(s1)
    1412:	fff40913          	addi	s2,s0,-1
    1416:	040a                	slli	s0,s0,0x2
    1418:	00898a33          	add	s4,s3,s0
    141c:	9426                	add	s0,s0,s1
    141e:	00095f63          	bgez	s2,143c <__call_exitprocs+0x58>
    1422:	50b2                	lw	ra,44(sp)
    1424:	5422                	lw	s0,40(sp)
    1426:	5492                	lw	s1,36(sp)
    1428:	5902                	lw	s2,32(sp)
    142a:	49f2                	lw	s3,28(sp)
    142c:	4a62                	lw	s4,24(sp)
    142e:	4ad2                	lw	s5,20(sp)
    1430:	4b42                	lw	s6,16(sp)
    1432:	4bb2                	lw	s7,12(sp)
    1434:	4c22                	lw	s8,8(sp)
    1436:	4c92                	lw	s9,4(sp)
    1438:	6145                	addi	sp,sp,48
    143a:	8082                	ret
    143c:	000a8c63          	beqz	s5,1454 <__call_exitprocs+0x70>
    1440:	00099663          	bnez	s3,144c <__call_exitprocs+0x68>
    1444:	197d                	addi	s2,s2,-1
    1446:	1a71                	addi	s4,s4,-4
    1448:	1471                	addi	s0,s0,-4
    144a:	bfd1                	j	141e <__call_exitprocs+0x3a>
    144c:	07ca2783          	lw	a5,124(s4)
    1450:	ff579ae3          	bne	a5,s5,1444 <__call_exitprocs+0x60>
    1454:	40d8                	lw	a4,4(s1)
    1456:	405c                	lw	a5,4(s0)
    1458:	177d                	addi	a4,a4,-1
    145a:	03271863          	bne	a4,s2,148a <__call_exitprocs+0xa6>
    145e:	0124a223          	sw	s2,4(s1)
    1462:	d3ed                	beqz	a5,1444 <__call_exitprocs+0x60>
    1464:	0044ac83          	lw	s9,4(s1)
    1468:	00098863          	beqz	s3,1478 <__call_exitprocs+0x94>
    146c:	1009a683          	lw	a3,256(s3)
    1470:	012c1733          	sll	a4,s8,s2
    1474:	8ef9                	and	a3,a3,a4
    1476:	ee89                	bnez	a3,1490 <__call_exitprocs+0xac>
    1478:	9782                	jalr	a5
    147a:	40d8                	lw	a4,4(s1)
    147c:	000b2783          	lw	a5,0(s6)
    1480:	f99713e3          	bne	a4,s9,1406 <__call_exitprocs+0x22>
    1484:	fcf480e3          	beq	s1,a5,1444 <__call_exitprocs+0x60>
    1488:	bfbd                	j	1406 <__call_exitprocs+0x22>
    148a:	00042223          	sw	zero,4(s0)
    148e:	bfd1                	j	1462 <__call_exitprocs+0x7e>
    1490:	1049a683          	lw	a3,260(s3)
    1494:	ffca2583          	lw	a1,-4(s4)
    1498:	8f75                	and	a4,a4,a3
    149a:	e701                	bnez	a4,14a2 <__call_exitprocs+0xbe>
    149c:	855e                	mv	a0,s7
    149e:	9782                	jalr	a5
    14a0:	bfe9                	j	147a <__call_exitprocs+0x96>
    14a2:	852e                	mv	a0,a1
    14a4:	9782                	jalr	a5
    14a6:	bfd1                	j	147a <__call_exitprocs+0x96>

000014a8 <__sflush_r>:
    14a8:	00c5d783          	lhu	a5,12(a1)
    14ac:	1101                	addi	sp,sp,-32
    14ae:	cc22                	sw	s0,24(sp)
    14b0:	ca26                	sw	s1,20(sp)
    14b2:	ce06                	sw	ra,28(sp)
    14b4:	c84a                	sw	s2,16(sp)
    14b6:	c64e                	sw	s3,12(sp)
    14b8:	0087f713          	andi	a4,a5,8
    14bc:	84aa                	mv	s1,a0
    14be:	842e                	mv	s0,a1
    14c0:	e375                	bnez	a4,15a4 <__sflush_r+0xfc>
    14c2:	41d8                	lw	a4,4(a1)
    14c4:	00e04763          	bgtz	a4,14d2 <__sflush_r+0x2a>
    14c8:	41b8                	lw	a4,64(a1)
    14ca:	00e04463          	bgtz	a4,14d2 <__sflush_r+0x2a>
    14ce:	4501                	li	a0,0
    14d0:	a875                	j	158c <__sflush_r+0xe4>
    14d2:	5458                	lw	a4,44(s0)
    14d4:	df6d                	beqz	a4,14ce <__sflush_r+0x26>
    14d6:	6685                	lui	a3,0x1
    14d8:	0004a903          	lw	s2,0(s1)
    14dc:	8ff5                	and	a5,a5,a3
    14de:	0004a023          	sw	zero,0(s1)
    14e2:	500c                	lw	a1,32(s0)
    14e4:	cfa5                	beqz	a5,155c <__sflush_r+0xb4>
    14e6:	4868                	lw	a0,84(s0)
    14e8:	00c45783          	lhu	a5,12(s0)
    14ec:	8b91                	andi	a5,a5,4
    14ee:	c799                	beqz	a5,14fc <__sflush_r+0x54>
    14f0:	405c                	lw	a5,4(s0)
    14f2:	8d1d                	sub	a0,a0,a5
    14f4:	585c                	lw	a5,52(s0)
    14f6:	c399                	beqz	a5,14fc <__sflush_r+0x54>
    14f8:	403c                	lw	a5,64(s0)
    14fa:	8d1d                	sub	a0,a0,a5
    14fc:	545c                	lw	a5,44(s0)
    14fe:	500c                	lw	a1,32(s0)
    1500:	862a                	mv	a2,a0
    1502:	4681                	li	a3,0
    1504:	8526                	mv	a0,s1
    1506:	9782                	jalr	a5
    1508:	57fd                	li	a5,-1
    150a:	00c45703          	lhu	a4,12(s0)
    150e:	00f51d63          	bne	a0,a5,1528 <__sflush_r+0x80>
    1512:	4094                	lw	a3,0(s1)
    1514:	47f5                	li	a5,29
    1516:	08d7e263          	bltu	a5,a3,159a <__sflush_r+0xf2>
    151a:	dfc007b7          	lui	a5,0xdfc00
    151e:	17f9                	addi	a5,a5,-2
    1520:	40d7d7b3          	sra	a5,a5,a3
    1524:	8b85                	andi	a5,a5,1
    1526:	ebb5                	bnez	a5,159a <__sflush_r+0xf2>
    1528:	481c                	lw	a5,16(s0)
    152a:	00042223          	sw	zero,4(s0)
    152e:	c01c                	sw	a5,0(s0)
    1530:	6785                	lui	a5,0x1
    1532:	8f7d                	and	a4,a4,a5
    1534:	c719                	beqz	a4,1542 <__sflush_r+0x9a>
    1536:	57fd                	li	a5,-1
    1538:	00f51463          	bne	a0,a5,1540 <__sflush_r+0x98>
    153c:	409c                	lw	a5,0(s1)
    153e:	e391                	bnez	a5,1542 <__sflush_r+0x9a>
    1540:	c868                	sw	a0,84(s0)
    1542:	584c                	lw	a1,52(s0)
    1544:	0124a023          	sw	s2,0(s1)
    1548:	d1d9                	beqz	a1,14ce <__sflush_r+0x26>
    154a:	04440793          	addi	a5,s0,68
    154e:	00f58463          	beq	a1,a5,1556 <__sflush_r+0xae>
    1552:	8526                	mv	a0,s1
    1554:	2175                	jal	1a00 <_free_r>
    1556:	02042a23          	sw	zero,52(s0)
    155a:	bf95                	j	14ce <__sflush_r+0x26>
    155c:	4685                	li	a3,1
    155e:	4601                	li	a2,0
    1560:	8526                	mv	a0,s1
    1562:	9702                	jalr	a4
    1564:	57fd                	li	a5,-1
    1566:	f8f511e3          	bne	a0,a5,14e8 <__sflush_r+0x40>
    156a:	409c                	lw	a5,0(s1)
    156c:	dfb5                	beqz	a5,14e8 <__sflush_r+0x40>
    156e:	4775                	li	a4,29
    1570:	00e78563          	beq	a5,a4,157a <__sflush_r+0xd2>
    1574:	4759                	li	a4,22
    1576:	00e79563          	bne	a5,a4,1580 <__sflush_r+0xd8>
    157a:	0124a023          	sw	s2,0(s1)
    157e:	bf81                	j	14ce <__sflush_r+0x26>
    1580:	00c45783          	lhu	a5,12(s0)
    1584:	0407e793          	ori	a5,a5,64
    1588:	00f41623          	sh	a5,12(s0)
    158c:	40f2                	lw	ra,28(sp)
    158e:	4462                	lw	s0,24(sp)
    1590:	44d2                	lw	s1,20(sp)
    1592:	4942                	lw	s2,16(sp)
    1594:	49b2                	lw	s3,12(sp)
    1596:	6105                	addi	sp,sp,32
    1598:	8082                	ret
    159a:	04076713          	ori	a4,a4,64
    159e:	00e41623          	sh	a4,12(s0)
    15a2:	b7ed                	j	158c <__sflush_r+0xe4>
    15a4:	0105a983          	lw	s3,16(a1)
    15a8:	f20983e3          	beqz	s3,14ce <__sflush_r+0x26>
    15ac:	0005a903          	lw	s2,0(a1)
    15b0:	8b8d                	andi	a5,a5,3
    15b2:	0135a023          	sw	s3,0(a1)
    15b6:	41390933          	sub	s2,s2,s3
    15ba:	4701                	li	a4,0
    15bc:	e391                	bnez	a5,15c0 <__sflush_r+0x118>
    15be:	49d8                	lw	a4,20(a1)
    15c0:	c418                	sw	a4,8(s0)
    15c2:	f12056e3          	blez	s2,14ce <__sflush_r+0x26>
    15c6:	541c                	lw	a5,40(s0)
    15c8:	500c                	lw	a1,32(s0)
    15ca:	86ca                	mv	a3,s2
    15cc:	864e                	mv	a2,s3
    15ce:	8526                	mv	a0,s1
    15d0:	9782                	jalr	a5
    15d2:	00a04a63          	bgtz	a0,15e6 <__sflush_r+0x13e>
    15d6:	00c45783          	lhu	a5,12(s0)
    15da:	557d                	li	a0,-1
    15dc:	0407e793          	ori	a5,a5,64
    15e0:	00f41623          	sh	a5,12(s0)
    15e4:	b765                	j	158c <__sflush_r+0xe4>
    15e6:	99aa                	add	s3,s3,a0
    15e8:	40a90933          	sub	s2,s2,a0
    15ec:	bfd9                	j	15c2 <__sflush_r+0x11a>

000015ee <_fflush_r>:
    15ee:	499c                	lw	a5,16(a1)
    15f0:	cfa1                	beqz	a5,1648 <_fflush_r+0x5a>
    15f2:	1101                	addi	sp,sp,-32
    15f4:	cc22                	sw	s0,24(sp)
    15f6:	ce06                	sw	ra,28(sp)
    15f8:	842a                	mv	s0,a0
    15fa:	c511                	beqz	a0,1606 <_fflush_r+0x18>
    15fc:	4d1c                	lw	a5,24(a0)
    15fe:	e781                	bnez	a5,1606 <_fflush_r+0x18>
    1600:	c62e                	sw	a1,12(sp)
    1602:	2a39                	jal	1720 <__sinit>
    1604:	45b2                	lw	a1,12(sp)
    1606:	67a1                	lui	a5,0x8
    1608:	4a078793          	addi	a5,a5,1184 # 84a0 <__sf_fake_stdin>
    160c:	00f59b63          	bne	a1,a5,1622 <_fflush_r+0x34>
    1610:	404c                	lw	a1,4(s0)
    1612:	00c59783          	lh	a5,12(a1)
    1616:	c785                	beqz	a5,163e <_fflush_r+0x50>
    1618:	8522                	mv	a0,s0
    161a:	4462                	lw	s0,24(sp)
    161c:	40f2                	lw	ra,28(sp)
    161e:	6105                	addi	sp,sp,32
    1620:	b561                	j	14a8 <__sflush_r>
    1622:	67a1                	lui	a5,0x8
    1624:	4c078793          	addi	a5,a5,1216 # 84c0 <__sf_fake_stdout>
    1628:	00f59463          	bne	a1,a5,1630 <_fflush_r+0x42>
    162c:	440c                	lw	a1,8(s0)
    162e:	b7d5                	j	1612 <_fflush_r+0x24>
    1630:	67a1                	lui	a5,0x8
    1632:	48078793          	addi	a5,a5,1152 # 8480 <__sf_fake_stderr>
    1636:	fcf59ee3          	bne	a1,a5,1612 <_fflush_r+0x24>
    163a:	444c                	lw	a1,12(s0)
    163c:	bfd9                	j	1612 <_fflush_r+0x24>
    163e:	40f2                	lw	ra,28(sp)
    1640:	4462                	lw	s0,24(sp)
    1642:	4501                	li	a0,0
    1644:	6105                	addi	sp,sp,32
    1646:	8082                	ret
    1648:	4501                	li	a0,0
    164a:	8082                	ret

0000164c <fflush>:
    164c:	85aa                	mv	a1,a0
    164e:	e519                	bnez	a0,165c <fflush+0x10>
    1650:	8601a503          	lw	a0,-1952(gp) # 86d4 <_global_impure_ptr>
    1654:	6585                	lui	a1,0x1
    1656:	5ee58593          	addi	a1,a1,1518 # 15ee <_fflush_r>
    165a:	a499                	j	18a0 <_fwalk_reent>
    165c:	8681a503          	lw	a0,-1944(gp) # 86dc <_impure_ptr>
    1660:	b779                	j	15ee <_fflush_r>

00001662 <__fp_lock>:
    1662:	4501                	li	a0,0
    1664:	8082                	ret

00001666 <std>:
    1666:	1141                	addi	sp,sp,-16
    1668:	c422                	sw	s0,8(sp)
    166a:	c606                	sw	ra,12(sp)
    166c:	842a                	mv	s0,a0
    166e:	00b51623          	sh	a1,12(a0)
    1672:	00c51723          	sh	a2,14(a0)
    1676:	00052023          	sw	zero,0(a0)
    167a:	00052223          	sw	zero,4(a0)
    167e:	00052423          	sw	zero,8(a0)
    1682:	06052223          	sw	zero,100(a0)
    1686:	00052823          	sw	zero,16(a0)
    168a:	00052a23          	sw	zero,20(a0)
    168e:	00052c23          	sw	zero,24(a0)
    1692:	4621                	li	a2,8
    1694:	4581                	li	a1,0
    1696:	05c50513          	addi	a0,a0,92
    169a:	923ff0ef          	jal	ra,fbc <memset>
    169e:	6789                	lui	a5,0x2
    16a0:	b9e78793          	addi	a5,a5,-1122 # 1b9e <__sread>
    16a4:	d05c                	sw	a5,36(s0)
    16a6:	6789                	lui	a5,0x2
    16a8:	bd278793          	addi	a5,a5,-1070 # 1bd2 <__swrite>
    16ac:	d41c                	sw	a5,40(s0)
    16ae:	6789                	lui	a5,0x2
    16b0:	c2078793          	addi	a5,a5,-992 # 1c20 <__sseek>
    16b4:	d45c                	sw	a5,44(s0)
    16b6:	6789                	lui	a5,0x2
    16b8:	c5678793          	addi	a5,a5,-938 # 1c56 <__sclose>
    16bc:	40b2                	lw	ra,12(sp)
    16be:	d000                	sw	s0,32(s0)
    16c0:	d81c                	sw	a5,48(s0)
    16c2:	4422                	lw	s0,8(sp)
    16c4:	0141                	addi	sp,sp,16
    16c6:	8082                	ret

000016c8 <_cleanup_r>:
    16c8:	6585                	lui	a1,0x1
    16ca:	5ee58593          	addi	a1,a1,1518 # 15ee <_fflush_r>
    16ce:	aac9                	j	18a0 <_fwalk_reent>

000016d0 <__fp_unlock>:
    16d0:	4501                	li	a0,0
    16d2:	8082                	ret

000016d4 <__sfmoreglue>:
    16d4:	1141                	addi	sp,sp,-16
    16d6:	c226                	sw	s1,4(sp)
    16d8:	06800793          	li	a5,104
    16dc:	fff58493          	addi	s1,a1,-1
    16e0:	02f484b3          	mul	s1,s1,a5
    16e4:	c04a                	sw	s2,0(sp)
    16e6:	892e                	mv	s2,a1
    16e8:	c422                	sw	s0,8(sp)
    16ea:	c606                	sw	ra,12(sp)
    16ec:	07448593          	addi	a1,s1,116
    16f0:	267d                	jal	1a9e <_malloc_r>
    16f2:	842a                	mv	s0,a0
    16f4:	cd01                	beqz	a0,170c <__sfmoreglue+0x38>
    16f6:	00052023          	sw	zero,0(a0)
    16fa:	01252223          	sw	s2,4(a0)
    16fe:	0531                	addi	a0,a0,12
    1700:	c408                	sw	a0,8(s0)
    1702:	06848613          	addi	a2,s1,104
    1706:	4581                	li	a1,0
    1708:	8b5ff0ef          	jal	ra,fbc <memset>
    170c:	40b2                	lw	ra,12(sp)
    170e:	8522                	mv	a0,s0
    1710:	4422                	lw	s0,8(sp)
    1712:	4492                	lw	s1,4(sp)
    1714:	4902                	lw	s2,0(sp)
    1716:	0141                	addi	sp,sp,16
    1718:	8082                	ret

0000171a <_cleanup>:
    171a:	8601a503          	lw	a0,-1952(gp) # 86d4 <_global_impure_ptr>
    171e:	b76d                	j	16c8 <_cleanup_r>

00001720 <__sinit>:
    1720:	4d1c                	lw	a5,24(a0)
    1722:	e3a5                	bnez	a5,1782 <__sinit+0x62>
    1724:	1141                	addi	sp,sp,-16
    1726:	6785                	lui	a5,0x1
    1728:	c422                	sw	s0,8(sp)
    172a:	c606                	sw	ra,12(sp)
    172c:	6c878793          	addi	a5,a5,1736 # 16c8 <_cleanup_r>
    1730:	d51c                	sw	a5,40(a0)
    1732:	8601a783          	lw	a5,-1952(gp) # 86d4 <_global_impure_ptr>
    1736:	04052423          	sw	zero,72(a0)
    173a:	04052623          	sw	zero,76(a0)
    173e:	04052823          	sw	zero,80(a0)
    1742:	842a                	mv	s0,a0
    1744:	00f51463          	bne	a0,a5,174c <__sinit+0x2c>
    1748:	4785                	li	a5,1
    174a:	cd1c                	sw	a5,24(a0)
    174c:	8522                	mv	a0,s0
    174e:	281d                	jal	1784 <__sfp>
    1750:	c048                	sw	a0,4(s0)
    1752:	8522                	mv	a0,s0
    1754:	2805                	jal	1784 <__sfp>
    1756:	c408                	sw	a0,8(s0)
    1758:	8522                	mv	a0,s0
    175a:	202d                	jal	1784 <__sfp>
    175c:	c448                	sw	a0,12(s0)
    175e:	4048                	lw	a0,4(s0)
    1760:	4601                	li	a2,0
    1762:	4591                	li	a1,4
    1764:	3709                	jal	1666 <std>
    1766:	4408                	lw	a0,8(s0)
    1768:	4605                	li	a2,1
    176a:	45a5                	li	a1,9
    176c:	3ded                	jal	1666 <std>
    176e:	4448                	lw	a0,12(s0)
    1770:	4609                	li	a2,2
    1772:	45c9                	li	a1,18
    1774:	3dcd                	jal	1666 <std>
    1776:	4785                	li	a5,1
    1778:	40b2                	lw	ra,12(sp)
    177a:	cc1c                	sw	a5,24(s0)
    177c:	4422                	lw	s0,8(sp)
    177e:	0141                	addi	sp,sp,16
    1780:	8082                	ret
    1782:	8082                	ret

00001784 <__sfp>:
    1784:	1141                	addi	sp,sp,-16
    1786:	c226                	sw	s1,4(sp)
    1788:	8601a483          	lw	s1,-1952(gp) # 86d4 <_global_impure_ptr>
    178c:	c04a                	sw	s2,0(sp)
    178e:	c606                	sw	ra,12(sp)
    1790:	4c9c                	lw	a5,24(s1)
    1792:	c422                	sw	s0,8(sp)
    1794:	892a                	mv	s2,a0
    1796:	e399                	bnez	a5,179c <__sfp+0x18>
    1798:	8526                	mv	a0,s1
    179a:	3759                	jal	1720 <__sinit>
    179c:	04848493          	addi	s1,s1,72
    17a0:	4480                	lw	s0,8(s1)
    17a2:	40dc                	lw	a5,4(s1)
    17a4:	17fd                	addi	a5,a5,-1
    17a6:	0007d663          	bgez	a5,17b2 <__sfp+0x2e>
    17aa:	409c                	lw	a5,0(s1)
    17ac:	cfb9                	beqz	a5,180a <__sfp+0x86>
    17ae:	4084                	lw	s1,0(s1)
    17b0:	bfc5                	j	17a0 <__sfp+0x1c>
    17b2:	00c41703          	lh	a4,12(s0)
    17b6:	e739                	bnez	a4,1804 <__sfp+0x80>
    17b8:	77c1                	lui	a5,0xffff0
    17ba:	0785                	addi	a5,a5,1
    17bc:	06042223          	sw	zero,100(s0)
    17c0:	00042023          	sw	zero,0(s0)
    17c4:	00042223          	sw	zero,4(s0)
    17c8:	00042423          	sw	zero,8(s0)
    17cc:	c45c                	sw	a5,12(s0)
    17ce:	00042823          	sw	zero,16(s0)
    17d2:	00042a23          	sw	zero,20(s0)
    17d6:	00042c23          	sw	zero,24(s0)
    17da:	4621                	li	a2,8
    17dc:	4581                	li	a1,0
    17de:	05c40513          	addi	a0,s0,92
    17e2:	fdaff0ef          	jal	ra,fbc <memset>
    17e6:	02042a23          	sw	zero,52(s0)
    17ea:	02042c23          	sw	zero,56(s0)
    17ee:	04042423          	sw	zero,72(s0)
    17f2:	04042623          	sw	zero,76(s0)
    17f6:	40b2                	lw	ra,12(sp)
    17f8:	8522                	mv	a0,s0
    17fa:	4422                	lw	s0,8(sp)
    17fc:	4492                	lw	s1,4(sp)
    17fe:	4902                	lw	s2,0(sp)
    1800:	0141                	addi	sp,sp,16
    1802:	8082                	ret
    1804:	06840413          	addi	s0,s0,104
    1808:	bf71                	j	17a4 <__sfp+0x20>
    180a:	4591                	li	a1,4
    180c:	854a                	mv	a0,s2
    180e:	35d9                	jal	16d4 <__sfmoreglue>
    1810:	c088                	sw	a0,0(s1)
    1812:	842a                	mv	s0,a0
    1814:	fd49                	bnez	a0,17ae <__sfp+0x2a>
    1816:	47b1                	li	a5,12
    1818:	00f92023          	sw	a5,0(s2)
    181c:	bfe9                	j	17f6 <__sfp+0x72>

0000181e <__sfp_lock_acquire>:
    181e:	8082                	ret

00001820 <__sfp_lock_release>:
    1820:	8082                	ret

00001822 <__sinit_lock_acquire>:
    1822:	8082                	ret

00001824 <__sinit_lock_release>:
    1824:	8082                	ret

00001826 <__fp_lock_all>:
    1826:	8681a503          	lw	a0,-1944(gp) # 86dc <_impure_ptr>
    182a:	6585                	lui	a1,0x1
    182c:	66258593          	addi	a1,a1,1634 # 1662 <__fp_lock>
    1830:	a039                	j	183e <_fwalk>

00001832 <__fp_unlock_all>:
    1832:	8681a503          	lw	a0,-1944(gp) # 86dc <_impure_ptr>
    1836:	6585                	lui	a1,0x1
    1838:	6d058593          	addi	a1,a1,1744 # 16d0 <__fp_unlock>
    183c:	a009                	j	183e <_fwalk>

0000183e <_fwalk>:
    183e:	1101                	addi	sp,sp,-32
    1840:	cc22                	sw	s0,24(sp)
    1842:	c84a                	sw	s2,16(sp)
    1844:	c64e                	sw	s3,12(sp)
    1846:	c256                	sw	s5,4(sp)
    1848:	c05a                	sw	s6,0(sp)
    184a:	ce06                	sw	ra,28(sp)
    184c:	ca26                	sw	s1,20(sp)
    184e:	c452                	sw	s4,8(sp)
    1850:	89ae                	mv	s3,a1
    1852:	04850413          	addi	s0,a0,72
    1856:	4901                	li	s2,0
    1858:	4a85                	li	s5,1
    185a:	5b7d                	li	s6,-1
    185c:	4404                	lw	s1,8(s0)
    185e:	00442a03          	lw	s4,4(s0)
    1862:	1a7d                	addi	s4,s4,-1
    1864:	000a5f63          	bgez	s4,1882 <_fwalk+0x44>
    1868:	4000                	lw	s0,0(s0)
    186a:	f86d                	bnez	s0,185c <_fwalk+0x1e>
    186c:	40f2                	lw	ra,28(sp)
    186e:	4462                	lw	s0,24(sp)
    1870:	44d2                	lw	s1,20(sp)
    1872:	49b2                	lw	s3,12(sp)
    1874:	4a22                	lw	s4,8(sp)
    1876:	4a92                	lw	s5,4(sp)
    1878:	4b02                	lw	s6,0(sp)
    187a:	854a                	mv	a0,s2
    187c:	4942                	lw	s2,16(sp)
    187e:	6105                	addi	sp,sp,32
    1880:	8082                	ret
    1882:	00c4d783          	lhu	a5,12(s1)
    1886:	00fafa63          	bgeu	s5,a5,189a <_fwalk+0x5c>
    188a:	00e49783          	lh	a5,14(s1)
    188e:	01678663          	beq	a5,s6,189a <_fwalk+0x5c>
    1892:	8526                	mv	a0,s1
    1894:	9982                	jalr	s3
    1896:	00a96933          	or	s2,s2,a0
    189a:	06848493          	addi	s1,s1,104
    189e:	b7d1                	j	1862 <_fwalk+0x24>

000018a0 <_fwalk_reent>:
    18a0:	7179                	addi	sp,sp,-48
    18a2:	d422                	sw	s0,40(sp)
    18a4:	d04a                	sw	s2,32(sp)
    18a6:	ce4e                	sw	s3,28(sp)
    18a8:	cc52                	sw	s4,24(sp)
    18aa:	c85a                	sw	s6,16(sp)
    18ac:	c65e                	sw	s7,12(sp)
    18ae:	d606                	sw	ra,44(sp)
    18b0:	d226                	sw	s1,36(sp)
    18b2:	ca56                	sw	s5,20(sp)
    18b4:	892a                	mv	s2,a0
    18b6:	8a2e                	mv	s4,a1
    18b8:	04850413          	addi	s0,a0,72
    18bc:	4981                	li	s3,0
    18be:	4b05                	li	s6,1
    18c0:	5bfd                	li	s7,-1
    18c2:	4404                	lw	s1,8(s0)
    18c4:	00442a83          	lw	s5,4(s0)
    18c8:	1afd                	addi	s5,s5,-1
    18ca:	020ad063          	bgez	s5,18ea <_fwalk_reent+0x4a>
    18ce:	4000                	lw	s0,0(s0)
    18d0:	f86d                	bnez	s0,18c2 <_fwalk_reent+0x22>
    18d2:	50b2                	lw	ra,44(sp)
    18d4:	5422                	lw	s0,40(sp)
    18d6:	5492                	lw	s1,36(sp)
    18d8:	5902                	lw	s2,32(sp)
    18da:	4a62                	lw	s4,24(sp)
    18dc:	4ad2                	lw	s5,20(sp)
    18de:	4b42                	lw	s6,16(sp)
    18e0:	4bb2                	lw	s7,12(sp)
    18e2:	854e                	mv	a0,s3
    18e4:	49f2                	lw	s3,28(sp)
    18e6:	6145                	addi	sp,sp,48
    18e8:	8082                	ret
    18ea:	00c4d783          	lhu	a5,12(s1)
    18ee:	00fb7b63          	bgeu	s6,a5,1904 <_fwalk_reent+0x64>
    18f2:	00e49783          	lh	a5,14(s1)
    18f6:	01778763          	beq	a5,s7,1904 <_fwalk_reent+0x64>
    18fa:	85a6                	mv	a1,s1
    18fc:	854a                	mv	a0,s2
    18fe:	9a02                	jalr	s4
    1900:	00a9e9b3          	or	s3,s3,a0
    1904:	06848493          	addi	s1,s1,104
    1908:	b7c1                	j	18c8 <_fwalk_reent+0x28>

0000190a <__swhatbuf_r>:
    190a:	7159                	addi	sp,sp,-112
    190c:	d4a2                	sw	s0,104(sp)
    190e:	842e                	mv	s0,a1
    1910:	00e59583          	lh	a1,14(a1)
    1914:	d2a6                	sw	s1,100(sp)
    1916:	d0ca                	sw	s2,96(sp)
    1918:	d686                	sw	ra,108(sp)
    191a:	84b2                	mv	s1,a2
    191c:	8936                	mv	s2,a3
    191e:	0205d463          	bgez	a1,1946 <__swhatbuf_r+0x3c>
    1922:	00c45783          	lhu	a5,12(s0)
    1926:	0807f793          	andi	a5,a5,128
    192a:	cf85                	beqz	a5,1962 <__swhatbuf_r+0x58>
    192c:	4781                	li	a5,0
    192e:	04000713          	li	a4,64
    1932:	50b6                	lw	ra,108(sp)
    1934:	5426                	lw	s0,104(sp)
    1936:	00f92023          	sw	a5,0(s2)
    193a:	c098                	sw	a4,0(s1)
    193c:	5906                	lw	s2,96(sp)
    193e:	5496                	lw	s1,100(sp)
    1940:	4501                	li	a0,0
    1942:	6165                	addi	sp,sp,112
    1944:	8082                	ret
    1946:	0030                	addi	a2,sp,8
    1948:	2e85                	jal	1cb8 <_fstat_r>
    194a:	fc054ce3          	bltz	a0,1922 <__swhatbuf_r+0x18>
    194e:	4732                	lw	a4,12(sp)
    1950:	67bd                	lui	a5,0xf
    1952:	8ff9                	and	a5,a5,a4
    1954:	7779                	lui	a4,0xffffe
    1956:	97ba                	add	a5,a5,a4
    1958:	0017b793          	seqz	a5,a5
    195c:	40000713          	li	a4,1024
    1960:	bfc9                	j	1932 <__swhatbuf_r+0x28>
    1962:	4781                	li	a5,0
    1964:	bfe5                	j	195c <__swhatbuf_r+0x52>

00001966 <__smakebuf_r>:
    1966:	00c5d783          	lhu	a5,12(a1)
    196a:	1101                	addi	sp,sp,-32
    196c:	cc22                	sw	s0,24(sp)
    196e:	ce06                	sw	ra,28(sp)
    1970:	ca26                	sw	s1,20(sp)
    1972:	c84a                	sw	s2,16(sp)
    1974:	8b89                	andi	a5,a5,2
    1976:	842e                	mv	s0,a1
    1978:	cf89                	beqz	a5,1992 <__smakebuf_r+0x2c>
    197a:	04740793          	addi	a5,s0,71
    197e:	c01c                	sw	a5,0(s0)
    1980:	c81c                	sw	a5,16(s0)
    1982:	4785                	li	a5,1
    1984:	c85c                	sw	a5,20(s0)
    1986:	40f2                	lw	ra,28(sp)
    1988:	4462                	lw	s0,24(sp)
    198a:	44d2                	lw	s1,20(sp)
    198c:	4942                	lw	s2,16(sp)
    198e:	6105                	addi	sp,sp,32
    1990:	8082                	ret
    1992:	0074                	addi	a3,sp,12
    1994:	0030                	addi	a2,sp,8
    1996:	84aa                	mv	s1,a0
    1998:	3f8d                	jal	190a <__swhatbuf_r>
    199a:	45a2                	lw	a1,8(sp)
    199c:	892a                	mv	s2,a0
    199e:	8526                	mv	a0,s1
    19a0:	28fd                	jal	1a9e <_malloc_r>
    19a2:	ed01                	bnez	a0,19ba <__smakebuf_r+0x54>
    19a4:	00c41783          	lh	a5,12(s0)
    19a8:	2007f713          	andi	a4,a5,512
    19ac:	ff69                	bnez	a4,1986 <__smakebuf_r+0x20>
    19ae:	9bf1                	andi	a5,a5,-4
    19b0:	0027e793          	ori	a5,a5,2
    19b4:	00f41623          	sh	a5,12(s0)
    19b8:	b7c9                	j	197a <__smakebuf_r+0x14>
    19ba:	6785                	lui	a5,0x1
    19bc:	6c878793          	addi	a5,a5,1736 # 16c8 <_cleanup_r>
    19c0:	d49c                	sw	a5,40(s1)
    19c2:	00c45783          	lhu	a5,12(s0)
    19c6:	c008                	sw	a0,0(s0)
    19c8:	c808                	sw	a0,16(s0)
    19ca:	0807e793          	ori	a5,a5,128
    19ce:	00f41623          	sh	a5,12(s0)
    19d2:	47a2                	lw	a5,8(sp)
    19d4:	c85c                	sw	a5,20(s0)
    19d6:	47b2                	lw	a5,12(sp)
    19d8:	cf89                	beqz	a5,19f2 <__smakebuf_r+0x8c>
    19da:	00e41583          	lh	a1,14(s0)
    19de:	8526                	mv	a0,s1
    19e0:	2619                	jal	1ce6 <_isatty_r>
    19e2:	c901                	beqz	a0,19f2 <__smakebuf_r+0x8c>
    19e4:	00c45783          	lhu	a5,12(s0)
    19e8:	9bf1                	andi	a5,a5,-4
    19ea:	0017e793          	ori	a5,a5,1
    19ee:	00f41623          	sh	a5,12(s0)
    19f2:	00c45783          	lhu	a5,12(s0)
    19f6:	0127e533          	or	a0,a5,s2
    19fa:	00a41623          	sh	a0,12(s0)
    19fe:	b761                	j	1986 <__smakebuf_r+0x20>

00001a00 <_free_r>:
    1a00:	cdd1                	beqz	a1,1a9c <_free_r+0x9c>
    1a02:	ffc5a783          	lw	a5,-4(a1)
    1a06:	1101                	addi	sp,sp,-32
    1a08:	cc22                	sw	s0,24(sp)
    1a0a:	ce06                	sw	ra,28(sp)
    1a0c:	ffc58413          	addi	s0,a1,-4
    1a10:	0007d363          	bgez	a5,1a16 <_free_r+0x16>
    1a14:	943e                	add	s0,s0,a5
    1a16:	c62a                	sw	a0,12(sp)
    1a18:	262d                	jal	1d42 <__malloc_lock>
    1a1a:	8801a783          	lw	a5,-1920(gp) # 86f4 <__malloc_free_list>
    1a1e:	4532                	lw	a0,12(sp)
    1a20:	eb89                	bnez	a5,1a32 <_free_r+0x32>
    1a22:	00042223          	sw	zero,4(s0)
    1a26:	8881a023          	sw	s0,-1920(gp) # 86f4 <__malloc_free_list>
    1a2a:	4462                	lw	s0,24(sp)
    1a2c:	40f2                	lw	ra,28(sp)
    1a2e:	6105                	addi	sp,sp,32
    1a30:	ae11                	j	1d44 <__malloc_unlock>
    1a32:	00f47d63          	bgeu	s0,a5,1a4c <_free_r+0x4c>
    1a36:	4010                	lw	a2,0(s0)
    1a38:	00c406b3          	add	a3,s0,a2
    1a3c:	00d79663          	bne	a5,a3,1a48 <_free_r+0x48>
    1a40:	4394                	lw	a3,0(a5)
    1a42:	43dc                	lw	a5,4(a5)
    1a44:	96b2                	add	a3,a3,a2
    1a46:	c014                	sw	a3,0(s0)
    1a48:	c05c                	sw	a5,4(s0)
    1a4a:	bff1                	j	1a26 <_free_r+0x26>
    1a4c:	873e                	mv	a4,a5
    1a4e:	43dc                	lw	a5,4(a5)
    1a50:	c399                	beqz	a5,1a56 <_free_r+0x56>
    1a52:	fef47de3          	bgeu	s0,a5,1a4c <_free_r+0x4c>
    1a56:	4314                	lw	a3,0(a4)
    1a58:	00d70633          	add	a2,a4,a3
    1a5c:	00861f63          	bne	a2,s0,1a7a <_free_r+0x7a>
    1a60:	4010                	lw	a2,0(s0)
    1a62:	96b2                	add	a3,a3,a2
    1a64:	c314                	sw	a3,0(a4)
    1a66:	00d70633          	add	a2,a4,a3
    1a6a:	fcc790e3          	bne	a5,a2,1a2a <_free_r+0x2a>
    1a6e:	4390                	lw	a2,0(a5)
    1a70:	43dc                	lw	a5,4(a5)
    1a72:	96b2                	add	a3,a3,a2
    1a74:	c314                	sw	a3,0(a4)
    1a76:	c35c                	sw	a5,4(a4)
    1a78:	bf4d                	j	1a2a <_free_r+0x2a>
    1a7a:	00c47563          	bgeu	s0,a2,1a84 <_free_r+0x84>
    1a7e:	47b1                	li	a5,12
    1a80:	c11c                	sw	a5,0(a0)
    1a82:	b765                	j	1a2a <_free_r+0x2a>
    1a84:	4010                	lw	a2,0(s0)
    1a86:	00c406b3          	add	a3,s0,a2
    1a8a:	00d79663          	bne	a5,a3,1a96 <_free_r+0x96>
    1a8e:	4394                	lw	a3,0(a5)
    1a90:	43dc                	lw	a5,4(a5)
    1a92:	96b2                	add	a3,a3,a2
    1a94:	c014                	sw	a3,0(s0)
    1a96:	c05c                	sw	a5,4(s0)
    1a98:	c340                	sw	s0,4(a4)
    1a9a:	bf41                	j	1a2a <_free_r+0x2a>
    1a9c:	8082                	ret

00001a9e <_malloc_r>:
    1a9e:	1101                	addi	sp,sp,-32
    1aa0:	ca26                	sw	s1,20(sp)
    1aa2:	00358493          	addi	s1,a1,3
    1aa6:	98f1                	andi	s1,s1,-4
    1aa8:	c84a                	sw	s2,16(sp)
    1aaa:	ce06                	sw	ra,28(sp)
    1aac:	cc22                	sw	s0,24(sp)
    1aae:	c64e                	sw	s3,12(sp)
    1ab0:	04a1                	addi	s1,s1,8
    1ab2:	47b1                	li	a5,12
    1ab4:	892a                	mv	s2,a0
    1ab6:	04f4f263          	bgeu	s1,a5,1afa <_malloc_r+0x5c>
    1aba:	44b1                	li	s1,12
    1abc:	04b4e163          	bltu	s1,a1,1afe <_malloc_r+0x60>
    1ac0:	854a                	mv	a0,s2
    1ac2:	2441                	jal	1d42 <__malloc_lock>
    1ac4:	88018713          	addi	a4,gp,-1920 # 86f4 <__malloc_free_list>
    1ac8:	4318                	lw	a4,0(a4)
    1aca:	88018693          	addi	a3,gp,-1920 # 86f4 <__malloc_free_list>
    1ace:	843a                	mv	s0,a4
    1ad0:	e031                	bnez	s0,1b14 <_malloc_r+0x76>
    1ad2:	88418413          	addi	s0,gp,-1916 # 86f8 <__malloc_sbrk_start>
    1ad6:	401c                	lw	a5,0(s0)
    1ad8:	e789                	bnez	a5,1ae2 <_malloc_r+0x44>
    1ada:	4581                	li	a1,0
    1adc:	854a                	mv	a0,s2
    1ade:	2851                	jal	1b72 <_sbrk_r>
    1ae0:	c008                	sw	a0,0(s0)
    1ae2:	85a6                	mv	a1,s1
    1ae4:	854a                	mv	a0,s2
    1ae6:	2071                	jal	1b72 <_sbrk_r>
    1ae8:	59fd                	li	s3,-1
    1aea:	07351863          	bne	a0,s3,1b5a <_malloc_r+0xbc>
    1aee:	47b1                	li	a5,12
    1af0:	00f92023          	sw	a5,0(s2)
    1af4:	854a                	mv	a0,s2
    1af6:	24b9                	jal	1d44 <__malloc_unlock>
    1af8:	a031                	j	1b04 <_malloc_r+0x66>
    1afa:	fc04d1e3          	bgez	s1,1abc <_malloc_r+0x1e>
    1afe:	47b1                	li	a5,12
    1b00:	00f92023          	sw	a5,0(s2)
    1b04:	4501                	li	a0,0
    1b06:	40f2                	lw	ra,28(sp)
    1b08:	4462                	lw	s0,24(sp)
    1b0a:	44d2                	lw	s1,20(sp)
    1b0c:	4942                	lw	s2,16(sp)
    1b0e:	49b2                	lw	s3,12(sp)
    1b10:	6105                	addi	sp,sp,32
    1b12:	8082                	ret
    1b14:	401c                	lw	a5,0(s0)
    1b16:	8f85                	sub	a5,a5,s1
    1b18:	0207ce63          	bltz	a5,1b54 <_malloc_r+0xb6>
    1b1c:	462d                	li	a2,11
    1b1e:	00f67663          	bgeu	a2,a5,1b2a <_malloc_r+0x8c>
    1b22:	c01c                	sw	a5,0(s0)
    1b24:	943e                	add	s0,s0,a5
    1b26:	c004                	sw	s1,0(s0)
    1b28:	a029                	j	1b32 <_malloc_r+0x94>
    1b2a:	405c                	lw	a5,4(s0)
    1b2c:	02871263          	bne	a4,s0,1b50 <_malloc_r+0xb2>
    1b30:	c29c                	sw	a5,0(a3)
    1b32:	854a                	mv	a0,s2
    1b34:	2c01                	jal	1d44 <__malloc_unlock>
    1b36:	00b40513          	addi	a0,s0,11
    1b3a:	00440793          	addi	a5,s0,4
    1b3e:	9961                	andi	a0,a0,-8
    1b40:	40f50733          	sub	a4,a0,a5
    1b44:	fcf501e3          	beq	a0,a5,1b06 <_malloc_r+0x68>
    1b48:	943a                	add	s0,s0,a4
    1b4a:	8f89                	sub	a5,a5,a0
    1b4c:	c01c                	sw	a5,0(s0)
    1b4e:	bf65                	j	1b06 <_malloc_r+0x68>
    1b50:	c35c                	sw	a5,4(a4)
    1b52:	b7c5                	j	1b32 <_malloc_r+0x94>
    1b54:	8722                	mv	a4,s0
    1b56:	4040                	lw	s0,4(s0)
    1b58:	bfa5                	j	1ad0 <_malloc_r+0x32>
    1b5a:	00350413          	addi	s0,a0,3
    1b5e:	9871                	andi	s0,s0,-4
    1b60:	fc8503e3          	beq	a0,s0,1b26 <_malloc_r+0x88>
    1b64:	40a405b3          	sub	a1,s0,a0
    1b68:	854a                	mv	a0,s2
    1b6a:	2021                	jal	1b72 <_sbrk_r>
    1b6c:	fb351de3          	bne	a0,s3,1b26 <_malloc_r+0x88>
    1b70:	bfbd                	j	1aee <_malloc_r+0x50>

00001b72 <_sbrk_r>:
    1b72:	1141                	addi	sp,sp,-16
    1b74:	c422                	sw	s0,8(sp)
    1b76:	c226                	sw	s1,4(sp)
    1b78:	842a                	mv	s0,a0
    1b7a:	852e                	mv	a0,a1
    1b7c:	c606                	sw	ra,12(sp)
    1b7e:	8601ac23          	sw	zero,-1928(gp) # 86ec <errno>
    1b82:	fd3fe0ef          	jal	ra,b54 <_sbrk>
    1b86:	57fd                	li	a5,-1
    1b88:	00f51663          	bne	a0,a5,1b94 <_sbrk_r+0x22>
    1b8c:	8781a783          	lw	a5,-1928(gp) # 86ec <errno>
    1b90:	c391                	beqz	a5,1b94 <_sbrk_r+0x22>
    1b92:	c01c                	sw	a5,0(s0)
    1b94:	40b2                	lw	ra,12(sp)
    1b96:	4422                	lw	s0,8(sp)
    1b98:	4492                	lw	s1,4(sp)
    1b9a:	0141                	addi	sp,sp,16
    1b9c:	8082                	ret

00001b9e <__sread>:
    1b9e:	1141                	addi	sp,sp,-16
    1ba0:	c422                	sw	s0,8(sp)
    1ba2:	842e                	mv	s0,a1
    1ba4:	00e59583          	lh	a1,14(a1)
    1ba8:	c606                	sw	ra,12(sp)
    1baa:	2a71                	jal	1d46 <_read_r>
    1bac:	00054963          	bltz	a0,1bbe <__sread+0x20>
    1bb0:	487c                	lw	a5,84(s0)
    1bb2:	97aa                	add	a5,a5,a0
    1bb4:	c87c                	sw	a5,84(s0)
    1bb6:	40b2                	lw	ra,12(sp)
    1bb8:	4422                	lw	s0,8(sp)
    1bba:	0141                	addi	sp,sp,16
    1bbc:	8082                	ret
    1bbe:	00c45783          	lhu	a5,12(s0)
    1bc2:	777d                	lui	a4,0xfffff
    1bc4:	177d                	addi	a4,a4,-1
    1bc6:	8ff9                	and	a5,a5,a4
    1bc8:	00f41623          	sh	a5,12(s0)
    1bcc:	b7ed                	j	1bb6 <__sread+0x18>

00001bce <__seofread>:
    1bce:	4501                	li	a0,0
    1bd0:	8082                	ret

00001bd2 <__swrite>:
    1bd2:	00c5d783          	lhu	a5,12(a1)
    1bd6:	1101                	addi	sp,sp,-32
    1bd8:	cc22                	sw	s0,24(sp)
    1bda:	ca26                	sw	s1,20(sp)
    1bdc:	c84a                	sw	s2,16(sp)
    1bde:	c64e                	sw	s3,12(sp)
    1be0:	ce06                	sw	ra,28(sp)
    1be2:	1007f793          	andi	a5,a5,256
    1be6:	84aa                	mv	s1,a0
    1be8:	842e                	mv	s0,a1
    1bea:	8932                	mv	s2,a2
    1bec:	89b6                	mv	s3,a3
    1bee:	c791                	beqz	a5,1bfa <__swrite+0x28>
    1bf0:	00e59583          	lh	a1,14(a1)
    1bf4:	4689                	li	a3,2
    1bf6:	4601                	li	a2,0
    1bf8:	2a29                	jal	1d12 <_lseek_r>
    1bfa:	00c45783          	lhu	a5,12(s0)
    1bfe:	777d                	lui	a4,0xfffff
    1c00:	177d                	addi	a4,a4,-1
    1c02:	8ff9                	and	a5,a5,a4
    1c04:	00e41583          	lh	a1,14(s0)
    1c08:	00f41623          	sh	a5,12(s0)
    1c0c:	4462                	lw	s0,24(sp)
    1c0e:	40f2                	lw	ra,28(sp)
    1c10:	86ce                	mv	a3,s3
    1c12:	864a                	mv	a2,s2
    1c14:	49b2                	lw	s3,12(sp)
    1c16:	4942                	lw	s2,16(sp)
    1c18:	8526                	mv	a0,s1
    1c1a:	44d2                	lw	s1,20(sp)
    1c1c:	6105                	addi	sp,sp,32
    1c1e:	a83d                	j	1c5c <_write_r>

00001c20 <__sseek>:
    1c20:	1141                	addi	sp,sp,-16
    1c22:	c422                	sw	s0,8(sp)
    1c24:	842e                	mv	s0,a1
    1c26:	00e59583          	lh	a1,14(a1)
    1c2a:	c606                	sw	ra,12(sp)
    1c2c:	20dd                	jal	1d12 <_lseek_r>
    1c2e:	577d                	li	a4,-1
    1c30:	00c45783          	lhu	a5,12(s0)
    1c34:	00e51b63          	bne	a0,a4,1c4a <__sseek+0x2a>
    1c38:	777d                	lui	a4,0xfffff
    1c3a:	177d                	addi	a4,a4,-1
    1c3c:	8ff9                	and	a5,a5,a4
    1c3e:	00f41623          	sh	a5,12(s0)
    1c42:	40b2                	lw	ra,12(sp)
    1c44:	4422                	lw	s0,8(sp)
    1c46:	0141                	addi	sp,sp,16
    1c48:	8082                	ret
    1c4a:	6705                	lui	a4,0x1
    1c4c:	8fd9                	or	a5,a5,a4
    1c4e:	00f41623          	sh	a5,12(s0)
    1c52:	c868                	sw	a0,84(s0)
    1c54:	b7fd                	j	1c42 <__sseek+0x22>

00001c56 <__sclose>:
    1c56:	00e59583          	lh	a1,14(a1)
    1c5a:	a80d                	j	1c8c <_close_r>

00001c5c <_write_r>:
    1c5c:	1141                	addi	sp,sp,-16
    1c5e:	c422                	sw	s0,8(sp)
    1c60:	c226                	sw	s1,4(sp)
    1c62:	842a                	mv	s0,a0
    1c64:	852e                	mv	a0,a1
    1c66:	85b2                	mv	a1,a2
    1c68:	8636                	mv	a2,a3
    1c6a:	c606                	sw	ra,12(sp)
    1c6c:	8601ac23          	sw	zero,-1928(gp) # 86ec <errno>
    1c70:	e43fe0ef          	jal	ra,ab2 <_write>
    1c74:	57fd                	li	a5,-1
    1c76:	00f51663          	bne	a0,a5,1c82 <_write_r+0x26>
    1c7a:	8781a783          	lw	a5,-1928(gp) # 86ec <errno>
    1c7e:	c391                	beqz	a5,1c82 <_write_r+0x26>
    1c80:	c01c                	sw	a5,0(s0)
    1c82:	40b2                	lw	ra,12(sp)
    1c84:	4422                	lw	s0,8(sp)
    1c86:	4492                	lw	s1,4(sp)
    1c88:	0141                	addi	sp,sp,16
    1c8a:	8082                	ret

00001c8c <_close_r>:
    1c8c:	1141                	addi	sp,sp,-16
    1c8e:	c422                	sw	s0,8(sp)
    1c90:	c226                	sw	s1,4(sp)
    1c92:	842a                	mv	s0,a0
    1c94:	852e                	mv	a0,a1
    1c96:	c606                	sw	ra,12(sp)
    1c98:	8601ac23          	sw	zero,-1928(gp) # 86ec <errno>
    1c9c:	debfe0ef          	jal	ra,a86 <_close>
    1ca0:	57fd                	li	a5,-1
    1ca2:	00f51663          	bne	a0,a5,1cae <_close_r+0x22>
    1ca6:	8781a783          	lw	a5,-1928(gp) # 86ec <errno>
    1caa:	c391                	beqz	a5,1cae <_close_r+0x22>
    1cac:	c01c                	sw	a5,0(s0)
    1cae:	40b2                	lw	ra,12(sp)
    1cb0:	4422                	lw	s0,8(sp)
    1cb2:	4492                	lw	s1,4(sp)
    1cb4:	0141                	addi	sp,sp,16
    1cb6:	8082                	ret

00001cb8 <_fstat_r>:
    1cb8:	1141                	addi	sp,sp,-16
    1cba:	c422                	sw	s0,8(sp)
    1cbc:	c226                	sw	s1,4(sp)
    1cbe:	842a                	mv	s0,a0
    1cc0:	852e                	mv	a0,a1
    1cc2:	85b2                	mv	a1,a2
    1cc4:	c606                	sw	ra,12(sp)
    1cc6:	8601ac23          	sw	zero,-1928(gp) # 86ec <errno>
    1cca:	dd1fe0ef          	jal	ra,a9a <_fstat>
    1cce:	57fd                	li	a5,-1
    1cd0:	00f51663          	bne	a0,a5,1cdc <_fstat_r+0x24>
    1cd4:	8781a783          	lw	a5,-1928(gp) # 86ec <errno>
    1cd8:	c391                	beqz	a5,1cdc <_fstat_r+0x24>
    1cda:	c01c                	sw	a5,0(s0)
    1cdc:	40b2                	lw	ra,12(sp)
    1cde:	4422                	lw	s0,8(sp)
    1ce0:	4492                	lw	s1,4(sp)
    1ce2:	0141                	addi	sp,sp,16
    1ce4:	8082                	ret

00001ce6 <_isatty_r>:
    1ce6:	1141                	addi	sp,sp,-16
    1ce8:	c422                	sw	s0,8(sp)
    1cea:	c226                	sw	s1,4(sp)
    1cec:	842a                	mv	s0,a0
    1cee:	852e                	mv	a0,a1
    1cf0:	c606                	sw	ra,12(sp)
    1cf2:	8601ac23          	sw	zero,-1928(gp) # 86ec <errno>
    1cf6:	dadfe0ef          	jal	ra,aa2 <_isatty>
    1cfa:	57fd                	li	a5,-1
    1cfc:	00f51663          	bne	a0,a5,1d08 <_isatty_r+0x22>
    1d00:	8781a783          	lw	a5,-1928(gp) # 86ec <errno>
    1d04:	c391                	beqz	a5,1d08 <_isatty_r+0x22>
    1d06:	c01c                	sw	a5,0(s0)
    1d08:	40b2                	lw	ra,12(sp)
    1d0a:	4422                	lw	s0,8(sp)
    1d0c:	4492                	lw	s1,4(sp)
    1d0e:	0141                	addi	sp,sp,16
    1d10:	8082                	ret

00001d12 <_lseek_r>:
    1d12:	1141                	addi	sp,sp,-16
    1d14:	c422                	sw	s0,8(sp)
    1d16:	c226                	sw	s1,4(sp)
    1d18:	842a                	mv	s0,a0
    1d1a:	852e                	mv	a0,a1
    1d1c:	85b2                	mv	a1,a2
    1d1e:	8636                	mv	a2,a3
    1d20:	c606                	sw	ra,12(sp)
    1d22:	8601ac23          	sw	zero,-1928(gp) # 86ec <errno>
    1d26:	d85fe0ef          	jal	ra,aaa <_lseek>
    1d2a:	57fd                	li	a5,-1
    1d2c:	00f51663          	bne	a0,a5,1d38 <_lseek_r+0x26>
    1d30:	8781a783          	lw	a5,-1928(gp) # 86ec <errno>
    1d34:	c391                	beqz	a5,1d38 <_lseek_r+0x26>
    1d36:	c01c                	sw	a5,0(s0)
    1d38:	40b2                	lw	ra,12(sp)
    1d3a:	4422                	lw	s0,8(sp)
    1d3c:	4492                	lw	s1,4(sp)
    1d3e:	0141                	addi	sp,sp,16
    1d40:	8082                	ret

00001d42 <__malloc_lock>:
    1d42:	8082                	ret

00001d44 <__malloc_unlock>:
    1d44:	8082                	ret

00001d46 <_read_r>:
    1d46:	1141                	addi	sp,sp,-16
    1d48:	c422                	sw	s0,8(sp)
    1d4a:	c226                	sw	s1,4(sp)
    1d4c:	842a                	mv	s0,a0
    1d4e:	852e                	mv	a0,a1
    1d50:	85b2                	mv	a1,a2
    1d52:	8636                	mv	a2,a3
    1d54:	c606                	sw	ra,12(sp)
    1d56:	8601ac23          	sw	zero,-1928(gp) # 86ec <errno>
    1d5a:	d55fe0ef          	jal	ra,aae <_read>
    1d5e:	57fd                	li	a5,-1
    1d60:	00f51663          	bne	a0,a5,1d6c <_read_r+0x26>
    1d64:	8781a783          	lw	a5,-1928(gp) # 86ec <errno>
    1d68:	c391                	beqz	a5,1d6c <_read_r+0x26>
    1d6a:	c01c                	sw	a5,0(s0)
    1d6c:	40b2                	lw	ra,12(sp)
    1d6e:	4422                	lw	s0,8(sp)
    1d70:	4492                	lw	s1,4(sp)
    1d72:	0141                	addi	sp,sp,16
    1d74:	8082                	ret

00001d76 <memcpy>:
    1d76:	832a                	mv	t1,a0
    1d78:	ca09                	beqz	a2,1d8a <memcpy+0x14>
    1d7a:	00058383          	lb	t2,0(a1)
    1d7e:	00730023          	sb	t2,0(t1)
    1d82:	167d                	addi	a2,a2,-1
    1d84:	0305                	addi	t1,t1,1
    1d86:	0585                	addi	a1,a1,1
    1d88:	fa6d                	bnez	a2,1d7a <memcpy+0x4>
    1d8a:	8082                	ret

00001d8c <_iprintf_r>:
    1d8c:	7139                	addi	sp,sp,-64
    1d8e:	cc22                	sw	s0,24(sp)
    1d90:	ca26                	sw	s1,20(sp)
    1d92:	ce06                	sw	ra,28(sp)
    1d94:	d432                	sw	a2,40(sp)
    1d96:	d636                	sw	a3,44(sp)
    1d98:	d83a                	sw	a4,48(sp)
    1d9a:	da3e                	sw	a5,52(sp)
    1d9c:	dc42                	sw	a6,56(sp)
    1d9e:	de46                	sw	a7,60(sp)
    1da0:	842a                	mv	s0,a0
    1da2:	84ae                	mv	s1,a1
    1da4:	c509                	beqz	a0,1dae <_iprintf_r+0x22>
    1da6:	4d1c                	lw	a5,24(a0)
    1da8:	e399                	bnez	a5,1dae <_iprintf_r+0x22>
    1daa:	977ff0ef          	jal	ra,1720 <__sinit>
    1dae:	440c                	lw	a1,8(s0)
    1db0:	1034                	addi	a3,sp,40
    1db2:	8626                	mv	a2,s1
    1db4:	8522                	mv	a0,s0
    1db6:	c636                	sw	a3,12(sp)
    1db8:	28d1                	jal	1e8c <_vfiprintf_r>
    1dba:	40f2                	lw	ra,28(sp)
    1dbc:	4462                	lw	s0,24(sp)
    1dbe:	44d2                	lw	s1,20(sp)
    1dc0:	6121                	addi	sp,sp,64
    1dc2:	8082                	ret

00001dc4 <iprintf>:
    1dc4:	715d                	addi	sp,sp,-80
    1dc6:	c2be                	sw	a5,68(sp)
    1dc8:	d422                	sw	s0,40(sp)
    1dca:	842a                	mv	s0,a0
    1dcc:	8681a503          	lw	a0,-1944(gp) # 86dc <_impure_ptr>
    1dd0:	d606                	sw	ra,44(sp)
    1dd2:	da2e                	sw	a1,52(sp)
    1dd4:	dc32                	sw	a2,56(sp)
    1dd6:	de36                	sw	a3,60(sp)
    1dd8:	c0ba                	sw	a4,64(sp)
    1dda:	c4c2                	sw	a6,72(sp)
    1ddc:	c6c6                	sw	a7,76(sp)
    1dde:	c519                	beqz	a0,1dec <iprintf+0x28>
    1de0:	4d1c                	lw	a5,24(a0)
    1de2:	e789                	bnez	a5,1dec <iprintf+0x28>
    1de4:	c62a                	sw	a0,12(sp)
    1de6:	93bff0ef          	jal	ra,1720 <__sinit>
    1dea:	4532                	lw	a0,12(sp)
    1dec:	450c                	lw	a1,8(a0)
    1dee:	1854                	addi	a3,sp,52
    1df0:	8622                	mv	a2,s0
    1df2:	ce36                	sw	a3,28(sp)
    1df4:	2861                	jal	1e8c <_vfiprintf_r>
    1df6:	50b2                	lw	ra,44(sp)
    1df8:	5422                	lw	s0,40(sp)
    1dfa:	6161                	addi	sp,sp,80
    1dfc:	8082                	ret

00001dfe <__sfputc_r>:
    1dfe:	461c                	lw	a5,8(a2)
    1e00:	17fd                	addi	a5,a5,-1
    1e02:	c61c                	sw	a5,8(a2)
    1e04:	0007da63          	bgez	a5,1e18 <__sfputc_r+0x1a>
    1e08:	4e18                	lw	a4,24(a2)
    1e0a:	00e7c563          	blt	a5,a4,1e14 <__sfputc_r+0x16>
    1e0e:	47a9                	li	a5,10
    1e10:	00f59463          	bne	a1,a5,1e18 <__sfputc_r+0x1a>
    1e14:	b8eff06f          	j	11a2 <__swbuf_r>
    1e18:	421c                	lw	a5,0(a2)
    1e1a:	852e                	mv	a0,a1
    1e1c:	00178713          	addi	a4,a5,1
    1e20:	c218                	sw	a4,0(a2)
    1e22:	00b78023          	sb	a1,0(a5)
    1e26:	8082                	ret

00001e28 <__sfputs_r>:
    1e28:	1101                	addi	sp,sp,-32
    1e2a:	cc22                	sw	s0,24(sp)
    1e2c:	ca26                	sw	s1,20(sp)
    1e2e:	c84a                	sw	s2,16(sp)
    1e30:	c64e                	sw	s3,12(sp)
    1e32:	c452                	sw	s4,8(sp)
    1e34:	ce06                	sw	ra,28(sp)
    1e36:	892a                	mv	s2,a0
    1e38:	89ae                	mv	s3,a1
    1e3a:	8432                	mv	s0,a2
    1e3c:	00d604b3          	add	s1,a2,a3
    1e40:	5a7d                	li	s4,-1
    1e42:	00941463          	bne	s0,s1,1e4a <__sfputs_r+0x22>
    1e46:	4501                	li	a0,0
    1e48:	a809                	j	1e5a <__sfputs_r+0x32>
    1e4a:	00044583          	lbu	a1,0(s0)
    1e4e:	864e                	mv	a2,s3
    1e50:	854a                	mv	a0,s2
    1e52:	3775                	jal	1dfe <__sfputc_r>
    1e54:	0405                	addi	s0,s0,1
    1e56:	ff4516e3          	bne	a0,s4,1e42 <__sfputs_r+0x1a>
    1e5a:	40f2                	lw	ra,28(sp)
    1e5c:	4462                	lw	s0,24(sp)
    1e5e:	44d2                	lw	s1,20(sp)
    1e60:	4942                	lw	s2,16(sp)
    1e62:	49b2                	lw	s3,12(sp)
    1e64:	4a22                	lw	s4,8(sp)
    1e66:	6105                	addi	sp,sp,32
    1e68:	8082                	ret

00001e6a <__sprint_r>:
    1e6a:	461c                	lw	a5,8(a2)
    1e6c:	1141                	addi	sp,sp,-16
    1e6e:	c422                	sw	s0,8(sp)
    1e70:	c606                	sw	ra,12(sp)
    1e72:	8432                	mv	s0,a2
    1e74:	cb91                	beqz	a5,1e88 <__sprint_r+0x1e>
    1e76:	2c55                	jal	212a <__sfvwrite_r>
    1e78:	00042423          	sw	zero,8(s0)
    1e7c:	40b2                	lw	ra,12(sp)
    1e7e:	00042223          	sw	zero,4(s0)
    1e82:	4422                	lw	s0,8(sp)
    1e84:	0141                	addi	sp,sp,16
    1e86:	8082                	ret
    1e88:	4501                	li	a0,0
    1e8a:	bfcd                	j	1e7c <__sprint_r+0x12>

00001e8c <_vfiprintf_r>:
    1e8c:	7171                	addi	sp,sp,-176
    1e8e:	d522                	sw	s0,168(sp)
    1e90:	d326                	sw	s1,164(sp)
    1e92:	d14a                	sw	s2,160(sp)
    1e94:	cf4e                	sw	s3,156(sp)
    1e96:	d706                	sw	ra,172(sp)
    1e98:	cd52                	sw	s4,152(sp)
    1e9a:	cb56                	sw	s5,148(sp)
    1e9c:	c95a                	sw	s6,144(sp)
    1e9e:	c75e                	sw	s7,140(sp)
    1ea0:	c562                	sw	s8,136(sp)
    1ea2:	c366                	sw	s9,132(sp)
    1ea4:	c16a                	sw	s10,128(sp)
    1ea6:	deee                	sw	s11,124(sp)
    1ea8:	89aa                	mv	s3,a0
    1eaa:	84ae                	mv	s1,a1
    1eac:	8932                	mv	s2,a2
    1eae:	8436                	mv	s0,a3
    1eb0:	c509                	beqz	a0,1eba <_vfiprintf_r+0x2e>
    1eb2:	4d1c                	lw	a5,24(a0)
    1eb4:	e399                	bnez	a5,1eba <_vfiprintf_r+0x2e>
    1eb6:	86bff0ef          	jal	ra,1720 <__sinit>
    1eba:	67a1                	lui	a5,0x8
    1ebc:	4a078793          	addi	a5,a5,1184 # 84a0 <__sf_fake_stdin>
    1ec0:	0ef49063          	bne	s1,a5,1fa0 <_vfiprintf_r+0x114>
    1ec4:	0049a483          	lw	s1,4(s3)
    1ec8:	00c4d783          	lhu	a5,12(s1)
    1ecc:	8ba1                	andi	a5,a5,8
    1ece:	0e078963          	beqz	a5,1fc0 <_vfiprintf_r+0x134>
    1ed2:	489c                	lw	a5,16(s1)
    1ed4:	0e078663          	beqz	a5,1fc0 <_vfiprintf_r+0x134>
    1ed8:	02000793          	li	a5,32
    1edc:	02f104a3          	sb	a5,41(sp)
    1ee0:	03000793          	li	a5,48
    1ee4:	d202                	sw	zero,36(sp)
    1ee6:	02f10523          	sb	a5,42(sp)
    1eea:	c622                	sw	s0,12(sp)
    1eec:	02500c93          	li	s9,37
    1ef0:	6b21                	lui	s6,0x8
    1ef2:	6ba1                	lui	s7,0x8
    1ef4:	6d21                	lui	s10,0x8
    1ef6:	6c09                	lui	s8,0x2
    1ef8:	00000a93          	li	s5,0
    1efc:	844a                	mv	s0,s2
    1efe:	00044783          	lbu	a5,0(s0)
    1f02:	c399                	beqz	a5,1f08 <_vfiprintf_r+0x7c>
    1f04:	0f979463          	bne	a5,s9,1fec <_vfiprintf_r+0x160>
    1f08:	41240db3          	sub	s11,s0,s2
    1f0c:	01240d63          	beq	s0,s2,1f26 <_vfiprintf_r+0x9a>
    1f10:	86ee                	mv	a3,s11
    1f12:	864a                	mv	a2,s2
    1f14:	85a6                	mv	a1,s1
    1f16:	854e                	mv	a0,s3
    1f18:	3f01                	jal	1e28 <__sfputs_r>
    1f1a:	57fd                	li	a5,-1
    1f1c:	1ef50163          	beq	a0,a5,20fe <_vfiprintf_r+0x272>
    1f20:	5792                	lw	a5,36(sp)
    1f22:	97ee                	add	a5,a5,s11
    1f24:	d23e                	sw	a5,36(sp)
    1f26:	00044783          	lbu	a5,0(s0)
    1f2a:	1c078a63          	beqz	a5,20fe <_vfiprintf_r+0x272>
    1f2e:	57fd                	li	a5,-1
    1f30:	00140913          	addi	s2,s0,1
    1f34:	c802                	sw	zero,16(sp)
    1f36:	ce02                	sw	zero,28(sp)
    1f38:	ca3e                	sw	a5,20(sp)
    1f3a:	cc02                	sw	zero,24(sp)
    1f3c:	040109a3          	sb	zero,83(sp)
    1f40:	d482                	sw	zero,104(sp)
    1f42:	4d85                	li	s11,1
    1f44:	00094583          	lbu	a1,0(s2)
    1f48:	4615                	li	a2,5
    1f4a:	4e0b0513          	addi	a0,s6,1248 # 84e0 <__sf_fake_stdout+0x20>
    1f4e:	2165                	jal	23f6 <memchr>
    1f50:	47c2                	lw	a5,16(sp)
    1f52:	00190413          	addi	s0,s2,1
    1f56:	ed49                	bnez	a0,1ff0 <_vfiprintf_r+0x164>
    1f58:	0107f713          	andi	a4,a5,16
    1f5c:	c709                	beqz	a4,1f66 <_vfiprintf_r+0xda>
    1f5e:	02000713          	li	a4,32
    1f62:	04e109a3          	sb	a4,83(sp)
    1f66:	0087f713          	andi	a4,a5,8
    1f6a:	c709                	beqz	a4,1f74 <_vfiprintf_r+0xe8>
    1f6c:	02b00713          	li	a4,43
    1f70:	04e109a3          	sb	a4,83(sp)
    1f74:	00094683          	lbu	a3,0(s2)
    1f78:	02a00713          	li	a4,42
    1f7c:	08e68363          	beq	a3,a4,2002 <_vfiprintf_r+0x176>
    1f80:	47f2                	lw	a5,28(sp)
    1f82:	844a                	mv	s0,s2
    1f84:	4681                	li	a3,0
    1f86:	4625                	li	a2,9
    1f88:	4529                	li	a0,10
    1f8a:	00044703          	lbu	a4,0(s0)
    1f8e:	00140593          	addi	a1,s0,1
    1f92:	fd070713          	addi	a4,a4,-48 # fd0 <_puts_r+0x4>
    1f96:	0ae67b63          	bgeu	a2,a4,204c <_vfiprintf_r+0x1c0>
    1f9a:	cea5                	beqz	a3,2012 <_vfiprintf_r+0x186>
    1f9c:	ce3e                	sw	a5,28(sp)
    1f9e:	a895                	j	2012 <_vfiprintf_r+0x186>
    1fa0:	67a1                	lui	a5,0x8
    1fa2:	4c078793          	addi	a5,a5,1216 # 84c0 <__sf_fake_stdout>
    1fa6:	00f49563          	bne	s1,a5,1fb0 <_vfiprintf_r+0x124>
    1faa:	0089a483          	lw	s1,8(s3)
    1fae:	bf29                	j	1ec8 <_vfiprintf_r+0x3c>
    1fb0:	67a1                	lui	a5,0x8
    1fb2:	48078793          	addi	a5,a5,1152 # 8480 <__sf_fake_stderr>
    1fb6:	f0f499e3          	bne	s1,a5,1ec8 <_vfiprintf_r+0x3c>
    1fba:	00c9a483          	lw	s1,12(s3)
    1fbe:	b729                	j	1ec8 <_vfiprintf_r+0x3c>
    1fc0:	85a6                	mv	a1,s1
    1fc2:	854e                	mv	a0,s3
    1fc4:	aa2ff0ef          	jal	ra,1266 <__swsetup_r>
    1fc8:	f00508e3          	beqz	a0,1ed8 <_vfiprintf_r+0x4c>
    1fcc:	557d                	li	a0,-1
    1fce:	50ba                	lw	ra,172(sp)
    1fd0:	542a                	lw	s0,168(sp)
    1fd2:	549a                	lw	s1,164(sp)
    1fd4:	590a                	lw	s2,160(sp)
    1fd6:	49fa                	lw	s3,156(sp)
    1fd8:	4a6a                	lw	s4,152(sp)
    1fda:	4ada                	lw	s5,148(sp)
    1fdc:	4b4a                	lw	s6,144(sp)
    1fde:	4bba                	lw	s7,140(sp)
    1fe0:	4c2a                	lw	s8,136(sp)
    1fe2:	4c9a                	lw	s9,132(sp)
    1fe4:	4d0a                	lw	s10,128(sp)
    1fe6:	5df6                	lw	s11,124(sp)
    1fe8:	614d                	addi	sp,sp,176
    1fea:	8082                	ret
    1fec:	0405                	addi	s0,s0,1
    1fee:	bf01                	j	1efe <_vfiprintf_r+0x72>
    1ff0:	4e0b0713          	addi	a4,s6,1248
    1ff4:	8d19                	sub	a0,a0,a4
    1ff6:	00ad9533          	sll	a0,s11,a0
    1ffa:	8fc9                	or	a5,a5,a0
    1ffc:	c83e                	sw	a5,16(sp)
    1ffe:	8922                	mv	s2,s0
    2000:	b791                	j	1f44 <_vfiprintf_r+0xb8>
    2002:	4732                	lw	a4,12(sp)
    2004:	00470693          	addi	a3,a4,4
    2008:	4318                	lw	a4,0(a4)
    200a:	c636                	sw	a3,12(sp)
    200c:	02074963          	bltz	a4,203e <_vfiprintf_r+0x1b2>
    2010:	ce3a                	sw	a4,28(sp)
    2012:	00044703          	lbu	a4,0(s0)
    2016:	02e00793          	li	a5,46
    201a:	06f71063          	bne	a4,a5,207a <_vfiprintf_r+0x1ee>
    201e:	00144703          	lbu	a4,1(s0)
    2022:	02a00793          	li	a5,42
    2026:	02f71b63          	bne	a4,a5,205c <_vfiprintf_r+0x1d0>
    202a:	47b2                	lw	a5,12(sp)
    202c:	0409                	addi	s0,s0,2
    202e:	00478713          	addi	a4,a5,4
    2032:	439c                	lw	a5,0(a5)
    2034:	c63a                	sw	a4,12(sp)
    2036:	0207c163          	bltz	a5,2058 <_vfiprintf_r+0x1cc>
    203a:	ca3e                	sw	a5,20(sp)
    203c:	a83d                	j	207a <_vfiprintf_r+0x1ee>
    203e:	40e00733          	neg	a4,a4
    2042:	0027e793          	ori	a5,a5,2
    2046:	ce3a                	sw	a4,28(sp)
    2048:	c83e                	sw	a5,16(sp)
    204a:	b7e1                	j	2012 <_vfiprintf_r+0x186>
    204c:	02a787b3          	mul	a5,a5,a0
    2050:	842e                	mv	s0,a1
    2052:	4685                	li	a3,1
    2054:	97ba                	add	a5,a5,a4
    2056:	bf15                	j	1f8a <_vfiprintf_r+0xfe>
    2058:	57fd                	li	a5,-1
    205a:	b7c5                	j	203a <_vfiprintf_r+0x1ae>
    205c:	0405                	addi	s0,s0,1
    205e:	ca02                	sw	zero,20(sp)
    2060:	4681                	li	a3,0
    2062:	4781                	li	a5,0
    2064:	4625                	li	a2,9
    2066:	4529                	li	a0,10
    2068:	00044703          	lbu	a4,0(s0)
    206c:	00140593          	addi	a1,s0,1
    2070:	fd070713          	addi	a4,a4,-48
    2074:	04e67d63          	bgeu	a2,a4,20ce <_vfiprintf_r+0x242>
    2078:	f2e9                	bnez	a3,203a <_vfiprintf_r+0x1ae>
    207a:	00044583          	lbu	a1,0(s0)
    207e:	460d                	li	a2,3
    2080:	4e8b8513          	addi	a0,s7,1256 # 84e8 <__sf_fake_stdout+0x28>
    2084:	2e8d                	jal	23f6 <memchr>
    2086:	cd01                	beqz	a0,209e <_vfiprintf_r+0x212>
    2088:	4e8b8793          	addi	a5,s7,1256
    208c:	8d1d                	sub	a0,a0,a5
    208e:	47c2                	lw	a5,16(sp)
    2090:	04000713          	li	a4,64
    2094:	00a71733          	sll	a4,a4,a0
    2098:	8fd9                	or	a5,a5,a4
    209a:	0405                	addi	s0,s0,1
    209c:	c83e                	sw	a5,16(sp)
    209e:	00044583          	lbu	a1,0(s0)
    20a2:	4619                	li	a2,6
    20a4:	4ecd0513          	addi	a0,s10,1260 # 84ec <__sf_fake_stdout+0x2c>
    20a8:	00140913          	addi	s2,s0,1
    20ac:	02b10423          	sb	a1,40(sp)
    20b0:	2699                	jal	23f6 <memchr>
    20b2:	cd31                	beqz	a0,210e <_vfiprintf_r+0x282>
    20b4:	020a9763          	bnez	s5,20e2 <_vfiprintf_r+0x256>
    20b8:	4742                	lw	a4,16(sp)
    20ba:	47b2                	lw	a5,12(sp)
    20bc:	10077713          	andi	a4,a4,256
    20c0:	cf09                	beqz	a4,20da <_vfiprintf_r+0x24e>
    20c2:	0791                	addi	a5,a5,4
    20c4:	c63e                	sw	a5,12(sp)
    20c6:	5792                	lw	a5,36(sp)
    20c8:	97d2                	add	a5,a5,s4
    20ca:	d23e                	sw	a5,36(sp)
    20cc:	bd05                	j	1efc <_vfiprintf_r+0x70>
    20ce:	02a787b3          	mul	a5,a5,a0
    20d2:	842e                	mv	s0,a1
    20d4:	4685                	li	a3,1
    20d6:	97ba                	add	a5,a5,a4
    20d8:	bf41                	j	2068 <_vfiprintf_r+0x1dc>
    20da:	079d                	addi	a5,a5,7
    20dc:	9be1                	andi	a5,a5,-8
    20de:	07a1                	addi	a5,a5,8
    20e0:	b7d5                	j	20c4 <_vfiprintf_r+0x238>
    20e2:	0078                	addi	a4,sp,12
    20e4:	e28c0693          	addi	a3,s8,-472 # 1e28 <__sfputs_r>
    20e8:	8626                	mv	a2,s1
    20ea:	080c                	addi	a1,sp,16
    20ec:	854e                	mv	a0,s3
    20ee:	00000097          	auipc	ra,0x0
    20f2:	000000e7          	jalr	zero # 0 <__vector_start>
    20f6:	57fd                	li	a5,-1
    20f8:	8a2a                	mv	s4,a0
    20fa:	fcf516e3          	bne	a0,a5,20c6 <_vfiprintf_r+0x23a>
    20fe:	00c4d783          	lhu	a5,12(s1)
    2102:	0407f793          	andi	a5,a5,64
    2106:	ec0793e3          	bnez	a5,1fcc <_vfiprintf_r+0x140>
    210a:	5512                	lw	a0,36(sp)
    210c:	b5c9                	j	1fce <_vfiprintf_r+0x142>
    210e:	0078                	addi	a4,sp,12
    2110:	e28c0693          	addi	a3,s8,-472
    2114:	8626                	mv	a2,s1
    2116:	080c                	addi	a1,sp,16
    2118:	854e                	mv	a0,s3
    211a:	2165                	jal	25c2 <_printf_i>
    211c:	bfe9                	j	20f6 <_vfiprintf_r+0x26a>

0000211e <vfiprintf>:
    211e:	86b2                	mv	a3,a2
    2120:	862e                	mv	a2,a1
    2122:	85aa                	mv	a1,a0
    2124:	8681a503          	lw	a0,-1944(gp) # 86dc <_impure_ptr>
    2128:	b395                	j	1e8c <_vfiprintf_r>

0000212a <__sfvwrite_r>:
    212a:	461c                	lw	a5,8(a2)
    212c:	e781                	bnez	a5,2134 <__sfvwrite_r+0xa>
    212e:	4781                	li	a5,0
    2130:	853e                	mv	a0,a5
    2132:	8082                	ret
    2134:	00c5d783          	lhu	a5,12(a1)
    2138:	715d                	addi	sp,sp,-80
    213a:	c4a2                	sw	s0,72(sp)
    213c:	c0ca                	sw	s2,64(sp)
    213e:	dc52                	sw	s4,56(sp)
    2140:	c686                	sw	ra,76(sp)
    2142:	c2a6                	sw	s1,68(sp)
    2144:	de4e                	sw	s3,60(sp)
    2146:	da56                	sw	s5,52(sp)
    2148:	d85a                	sw	s6,48(sp)
    214a:	d65e                	sw	s7,44(sp)
    214c:	d462                	sw	s8,40(sp)
    214e:	d266                	sw	s9,36(sp)
    2150:	d06a                	sw	s10,32(sp)
    2152:	ce6e                	sw	s11,28(sp)
    2154:	8ba1                	andi	a5,a5,8
    2156:	892a                	mv	s2,a0
    2158:	842e                	mv	s0,a1
    215a:	8a32                	mv	s4,a2
    215c:	cbd9                	beqz	a5,21f2 <__sfvwrite_r+0xc8>
    215e:	499c                	lw	a5,16(a1)
    2160:	cbc9                	beqz	a5,21f2 <__sfvwrite_r+0xc8>
    2162:	00c45783          	lhu	a5,12(s0)
    2166:	000a2983          	lw	s3,0(s4)
    216a:	0027f713          	andi	a4,a5,2
    216e:	e37d                	bnez	a4,2254 <__sfvwrite_r+0x12a>
    2170:	8b85                	andi	a5,a5,1
    2172:	14078f63          	beqz	a5,22d0 <__sfvwrite_r+0x1a6>
    2176:	4b81                	li	s7,0
    2178:	4501                	li	a0,0
    217a:	4b01                	li	s6,0
    217c:	4a81                	li	s5,0
    217e:	220a8e63          	beqz	s5,23ba <__sfvwrite_r+0x290>
    2182:	e919                	bnez	a0,2198 <__sfvwrite_r+0x6e>
    2184:	8656                	mv	a2,s5
    2186:	45a9                	li	a1,10
    2188:	855a                	mv	a0,s6
    218a:	24b5                	jal	23f6 <memchr>
    218c:	001a8b93          	addi	s7,s5,1
    2190:	c501                	beqz	a0,2198 <__sfvwrite_r+0x6e>
    2192:	0505                	addi	a0,a0,1
    2194:	41650bb3          	sub	s7,a0,s6
    2198:	8c5e                	mv	s8,s7
    219a:	017af363          	bgeu	s5,s7,21a0 <__sfvwrite_r+0x76>
    219e:	8c56                	mv	s8,s5
    21a0:	4008                	lw	a0,0(s0)
    21a2:	481c                	lw	a5,16(s0)
    21a4:	4404                	lw	s1,8(s0)
    21a6:	4854                	lw	a3,20(s0)
    21a8:	22a7f063          	bgeu	a5,a0,23c8 <__sfvwrite_r+0x29e>
    21ac:	94b6                	add	s1,s1,a3
    21ae:	2184dd63          	bge	s1,s8,23c8 <__sfvwrite_r+0x29e>
    21b2:	85da                	mv	a1,s6
    21b4:	8626                	mv	a2,s1
    21b6:	2ca9                	jal	2410 <memmove>
    21b8:	401c                	lw	a5,0(s0)
    21ba:	85a2                	mv	a1,s0
    21bc:	854a                	mv	a0,s2
    21be:	97a6                	add	a5,a5,s1
    21c0:	c01c                	sw	a5,0(s0)
    21c2:	c2cff0ef          	jal	ra,15ee <_fflush_r>
    21c6:	0e051d63          	bnez	a0,22c0 <__sfvwrite_r+0x196>
    21ca:	409b8bb3          	sub	s7,s7,s1
    21ce:	4505                	li	a0,1
    21d0:	000b9763          	bnez	s7,21de <__sfvwrite_r+0xb4>
    21d4:	85a2                	mv	a1,s0
    21d6:	854a                	mv	a0,s2
    21d8:	c16ff0ef          	jal	ra,15ee <_fflush_r>
    21dc:	e175                	bnez	a0,22c0 <__sfvwrite_r+0x196>
    21de:	008a2783          	lw	a5,8(s4)
    21e2:	9b26                	add	s6,s6,s1
    21e4:	409a8ab3          	sub	s5,s5,s1
    21e8:	8f85                	sub	a5,a5,s1
    21ea:	00fa2423          	sw	a5,8(s4)
    21ee:	fbc1                	bnez	a5,217e <__sfvwrite_r+0x54>
    21f0:	a089                	j	2232 <__sfvwrite_r+0x108>
    21f2:	85a2                	mv	a1,s0
    21f4:	854a                	mv	a0,s2
    21f6:	870ff0ef          	jal	ra,1266 <__swsetup_r>
    21fa:	57fd                	li	a5,-1
    21fc:	d13d                	beqz	a0,2162 <__sfvwrite_r+0x38>
    21fe:	a81d                	j	2234 <__sfvwrite_r+0x10a>
    2200:	0009aa83          	lw	s5,0(s3)
    2204:	0049a483          	lw	s1,4(s3)
    2208:	09a1                	addi	s3,s3,8
    220a:	541c                	lw	a5,40(s0)
    220c:	500c                	lw	a1,32(s0)
    220e:	d8ed                	beqz	s1,2200 <__sfvwrite_r+0xd6>
    2210:	86a6                	mv	a3,s1
    2212:	009b7363          	bgeu	s6,s1,2218 <__sfvwrite_r+0xee>
    2216:	86da                	mv	a3,s6
    2218:	8656                	mv	a2,s5
    221a:	854a                	mv	a0,s2
    221c:	9782                	jalr	a5
    221e:	0aa05163          	blez	a0,22c0 <__sfvwrite_r+0x196>
    2222:	008a2783          	lw	a5,8(s4)
    2226:	9aaa                	add	s5,s5,a0
    2228:	8c89                	sub	s1,s1,a0
    222a:	8f89                	sub	a5,a5,a0
    222c:	00fa2423          	sw	a5,8(s4)
    2230:	ffe9                	bnez	a5,220a <__sfvwrite_r+0xe0>
    2232:	4781                	li	a5,0
    2234:	40b6                	lw	ra,76(sp)
    2236:	4426                	lw	s0,72(sp)
    2238:	4496                	lw	s1,68(sp)
    223a:	4906                	lw	s2,64(sp)
    223c:	59f2                	lw	s3,60(sp)
    223e:	5a62                	lw	s4,56(sp)
    2240:	5ad2                	lw	s5,52(sp)
    2242:	5b42                	lw	s6,48(sp)
    2244:	5bb2                	lw	s7,44(sp)
    2246:	5c22                	lw	s8,40(sp)
    2248:	5c92                	lw	s9,36(sp)
    224a:	5d02                	lw	s10,32(sp)
    224c:	4df2                	lw	s11,28(sp)
    224e:	853e                	mv	a0,a5
    2250:	6161                	addi	sp,sp,80
    2252:	8082                	ret
    2254:	80000b37          	lui	s6,0x80000
    2258:	4a81                	li	s5,0
    225a:	4481                	li	s1,0
    225c:	c00b4b13          	xori	s6,s6,-1024
    2260:	b76d                	j	220a <__sfvwrite_r+0xe0>
    2262:	0009aa83          	lw	s5,0(s3)
    2266:	0049ad03          	lw	s10,4(s3)
    226a:	09a1                	addi	s3,s3,8
    226c:	00c41703          	lh	a4,12(s0)
    2270:	4008                	lw	a0,0(s0)
    2272:	4410                	lw	a2,8(s0)
    2274:	fe0d07e3          	beqz	s10,2262 <__sfvwrite_r+0x138>
    2278:	01071793          	slli	a5,a4,0x10
    227c:	20077713          	andi	a4,a4,512
    2280:	83c1                	srli	a5,a5,0x10
    2282:	c36d                	beqz	a4,2364 <__sfvwrite_r+0x23a>
    2284:	08cd6763          	bltu	s10,a2,2312 <__sfvwrite_r+0x1e8>
    2288:	4807f713          	andi	a4,a5,1152
    228c:	c359                	beqz	a4,2312 <__sfvwrite_r+0x1e8>
    228e:	4844                	lw	s1,20(s0)
    2290:	480c                	lw	a1,16(s0)
    2292:	029c04b3          	mul	s1,s8,s1
    2296:	40b50db3          	sub	s11,a0,a1
    229a:	001d8713          	addi	a4,s11,1
    229e:	976a                	add	a4,a4,s10
    22a0:	0394c4b3          	div	s1,s1,s9
    22a4:	00e4f363          	bgeu	s1,a4,22aa <__sfvwrite_r+0x180>
    22a8:	84ba                	mv	s1,a4
    22aa:	4007f793          	andi	a5,a5,1024
    22ae:	cbd9                	beqz	a5,2344 <__sfvwrite_r+0x21a>
    22b0:	85a6                	mv	a1,s1
    22b2:	854a                	mv	a0,s2
    22b4:	feaff0ef          	jal	ra,1a9e <_malloc_r>
    22b8:	e51d                	bnez	a0,22e6 <__sfvwrite_r+0x1bc>
    22ba:	47b1                	li	a5,12
    22bc:	00f92023          	sw	a5,0(s2)
    22c0:	00c45783          	lhu	a5,12(s0)
    22c4:	0407e793          	ori	a5,a5,64
    22c8:	00f41623          	sh	a5,12(s0)
    22cc:	57fd                	li	a5,-1
    22ce:	b79d                	j	2234 <__sfvwrite_r+0x10a>
    22d0:	80000b37          	lui	s6,0x80000
    22d4:	ffeb4b93          	xori	s7,s6,-2
    22d8:	4a81                	li	s5,0
    22da:	4d01                	li	s10,0
    22dc:	fffb4b13          	not	s6,s6
    22e0:	4c0d                	li	s8,3
    22e2:	4c89                	li	s9,2
    22e4:	b761                	j	226c <__sfvwrite_r+0x142>
    22e6:	480c                	lw	a1,16(s0)
    22e8:	866e                	mv	a2,s11
    22ea:	c62a                	sw	a0,12(sp)
    22ec:	a8bff0ef          	jal	ra,1d76 <memcpy>
    22f0:	00c45703          	lhu	a4,12(s0)
    22f4:	47b2                	lw	a5,12(sp)
    22f6:	b7f77713          	andi	a4,a4,-1153
    22fa:	08076713          	ori	a4,a4,128
    22fe:	00e41623          	sh	a4,12(s0)
    2302:	c81c                	sw	a5,16(s0)
    2304:	c844                	sw	s1,20(s0)
    2306:	97ee                	add	a5,a5,s11
    2308:	41b484b3          	sub	s1,s1,s11
    230c:	c01c                	sw	a5,0(s0)
    230e:	866a                	mv	a2,s10
    2310:	c404                	sw	s1,8(s0)
    2312:	84ea                	mv	s1,s10
    2314:	00cd7363          	bgeu	s10,a2,231a <__sfvwrite_r+0x1f0>
    2318:	866a                	mv	a2,s10
    231a:	4008                	lw	a0,0(s0)
    231c:	85d6                	mv	a1,s5
    231e:	c632                	sw	a2,12(sp)
    2320:	28c5                	jal	2410 <memmove>
    2322:	441c                	lw	a5,8(s0)
    2324:	4632                	lw	a2,12(sp)
    2326:	8f91                	sub	a5,a5,a2
    2328:	c41c                	sw	a5,8(s0)
    232a:	401c                	lw	a5,0(s0)
    232c:	97b2                	add	a5,a5,a2
    232e:	c01c                	sw	a5,0(s0)
    2330:	008a2783          	lw	a5,8(s4)
    2334:	9aa6                	add	s5,s5,s1
    2336:	409d0d33          	sub	s10,s10,s1
    233a:	8f85                	sub	a5,a5,s1
    233c:	00fa2423          	sw	a5,8(s4)
    2340:	f795                	bnez	a5,226c <__sfvwrite_r+0x142>
    2342:	bdc5                	j	2232 <__sfvwrite_r+0x108>
    2344:	8626                	mv	a2,s1
    2346:	854a                	mv	a0,s2
    2348:	20fd                	jal	2436 <_realloc_r>
    234a:	87aa                	mv	a5,a0
    234c:	f95d                	bnez	a0,2302 <__sfvwrite_r+0x1d8>
    234e:	480c                	lw	a1,16(s0)
    2350:	854a                	mv	a0,s2
    2352:	eaeff0ef          	jal	ra,1a00 <_free_r>
    2356:	00c45783          	lhu	a5,12(s0)
    235a:	f7f7f793          	andi	a5,a5,-129
    235e:	00f41623          	sh	a5,12(s0)
    2362:	bfa1                	j	22ba <__sfvwrite_r+0x190>
    2364:	481c                	lw	a5,16(s0)
    2366:	00a7e563          	bltu	a5,a0,2370 <__sfvwrite_r+0x246>
    236a:	4854                	lw	a3,20(s0)
    236c:	02dd7663          	bgeu	s10,a3,2398 <__sfvwrite_r+0x26e>
    2370:	84b2                	mv	s1,a2
    2372:	00cd7363          	bgeu	s10,a2,2378 <__sfvwrite_r+0x24e>
    2376:	84ea                	mv	s1,s10
    2378:	8626                	mv	a2,s1
    237a:	85d6                	mv	a1,s5
    237c:	2851                	jal	2410 <memmove>
    237e:	441c                	lw	a5,8(s0)
    2380:	4018                	lw	a4,0(s0)
    2382:	8f85                	sub	a5,a5,s1
    2384:	9726                	add	a4,a4,s1
    2386:	c41c                	sw	a5,8(s0)
    2388:	c018                	sw	a4,0(s0)
    238a:	f3dd                	bnez	a5,2330 <__sfvwrite_r+0x206>
    238c:	85a2                	mv	a1,s0
    238e:	854a                	mv	a0,s2
    2390:	a5eff0ef          	jal	ra,15ee <_fflush_r>
    2394:	dd51                	beqz	a0,2330 <__sfvwrite_r+0x206>
    2396:	b72d                	j	22c0 <__sfvwrite_r+0x196>
    2398:	87da                	mv	a5,s6
    239a:	01abe363          	bltu	s7,s10,23a0 <__sfvwrite_r+0x276>
    239e:	87ea                	mv	a5,s10
    23a0:	02d7c7b3          	div	a5,a5,a3
    23a4:	5418                	lw	a4,40(s0)
    23a6:	500c                	lw	a1,32(s0)
    23a8:	8656                	mv	a2,s5
    23aa:	854a                	mv	a0,s2
    23ac:	02d786b3          	mul	a3,a5,a3
    23b0:	9702                	jalr	a4
    23b2:	84aa                	mv	s1,a0
    23b4:	f6a04ee3          	bgtz	a0,2330 <__sfvwrite_r+0x206>
    23b8:	b721                	j	22c0 <__sfvwrite_r+0x196>
    23ba:	0009ab03          	lw	s6,0(s3)
    23be:	0049aa83          	lw	s5,4(s3)
    23c2:	4501                	li	a0,0
    23c4:	09a1                	addi	s3,s3,8
    23c6:	bb65                	j	217e <__sfvwrite_r+0x54>
    23c8:	00dc4b63          	blt	s8,a3,23de <__sfvwrite_r+0x2b4>
    23cc:	541c                	lw	a5,40(s0)
    23ce:	500c                	lw	a1,32(s0)
    23d0:	865a                	mv	a2,s6
    23d2:	854a                	mv	a0,s2
    23d4:	9782                	jalr	a5
    23d6:	84aa                	mv	s1,a0
    23d8:	dea049e3          	bgtz	a0,21ca <__sfvwrite_r+0xa0>
    23dc:	b5d5                	j	22c0 <__sfvwrite_r+0x196>
    23de:	8662                	mv	a2,s8
    23e0:	85da                	mv	a1,s6
    23e2:	203d                	jal	2410 <memmove>
    23e4:	441c                	lw	a5,8(s0)
    23e6:	84e2                	mv	s1,s8
    23e8:	418787b3          	sub	a5,a5,s8
    23ec:	c41c                	sw	a5,8(s0)
    23ee:	401c                	lw	a5,0(s0)
    23f0:	97e2                	add	a5,a5,s8
    23f2:	c01c                	sw	a5,0(s0)
    23f4:	bbd9                	j	21ca <__sfvwrite_r+0xa0>

000023f6 <memchr>:
    23f6:	0ff5f593          	zext.b	a1,a1
    23fa:	962a                	add	a2,a2,a0
    23fc:	00c51463          	bne	a0,a2,2404 <memchr+0xe>
    2400:	4501                	li	a0,0
    2402:	8082                	ret
    2404:	00054783          	lbu	a5,0(a0)
    2408:	feb78de3          	beq	a5,a1,2402 <memchr+0xc>
    240c:	0505                	addi	a0,a0,1
    240e:	b7fd                	j	23fc <memchr+0x6>

00002410 <memmove>:
    2410:	c215                	beqz	a2,2434 <memmove+0x24>
    2412:	832a                	mv	t1,a0
    2414:	4685                	li	a3,1
    2416:	00b56763          	bltu	a0,a1,2424 <memmove+0x14>
    241a:	56fd                	li	a3,-1
    241c:	fff60713          	addi	a4,a2,-1 # 3fffffff <_sp+0x3fff585f>
    2420:	933a                	add	t1,t1,a4
    2422:	95ba                	add	a1,a1,a4
    2424:	00058383          	lb	t2,0(a1)
    2428:	00730023          	sb	t2,0(t1)
    242c:	167d                	addi	a2,a2,-1
    242e:	9336                	add	t1,t1,a3
    2430:	95b6                	add	a1,a1,a3
    2432:	fa6d                	bnez	a2,2424 <memmove+0x14>
    2434:	8082                	ret

00002436 <_realloc_r>:
    2436:	1101                	addi	sp,sp,-32
    2438:	cc22                	sw	s0,24(sp)
    243a:	ce06                	sw	ra,28(sp)
    243c:	ca26                	sw	s1,20(sp)
    243e:	c84a                	sw	s2,16(sp)
    2440:	c64e                	sw	s3,12(sp)
    2442:	c452                	sw	s4,8(sp)
    2444:	8432                	mv	s0,a2
    2446:	e999                	bnez	a1,245c <_realloc_r+0x26>
    2448:	4462                	lw	s0,24(sp)
    244a:	40f2                	lw	ra,28(sp)
    244c:	44d2                	lw	s1,20(sp)
    244e:	4942                	lw	s2,16(sp)
    2450:	49b2                	lw	s3,12(sp)
    2452:	4a22                	lw	s4,8(sp)
    2454:	85b2                	mv	a1,a2
    2456:	6105                	addi	sp,sp,32
    2458:	e46ff06f          	j	1a9e <_malloc_r>
    245c:	ee09                	bnez	a2,2476 <_realloc_r+0x40>
    245e:	da2ff0ef          	jal	ra,1a00 <_free_r>
    2462:	4481                	li	s1,0
    2464:	40f2                	lw	ra,28(sp)
    2466:	4462                	lw	s0,24(sp)
    2468:	4942                	lw	s2,16(sp)
    246a:	49b2                	lw	s3,12(sp)
    246c:	4a22                	lw	s4,8(sp)
    246e:	8526                	mv	a0,s1
    2470:	44d2                	lw	s1,20(sp)
    2472:	6105                	addi	sp,sp,32
    2474:	8082                	ret
    2476:	8a2a                	mv	s4,a0
    2478:	892e                	mv	s2,a1
    247a:	264d                	jal	281c <_malloc_usable_size_r>
    247c:	89aa                	mv	s3,a0
    247e:	00856763          	bltu	a0,s0,248c <_realloc_r+0x56>
    2482:	00155793          	srli	a5,a0,0x1
    2486:	84ca                	mv	s1,s2
    2488:	fc87eee3          	bltu	a5,s0,2464 <_realloc_r+0x2e>
    248c:	85a2                	mv	a1,s0
    248e:	8552                	mv	a0,s4
    2490:	e0eff0ef          	jal	ra,1a9e <_malloc_r>
    2494:	84aa                	mv	s1,a0
    2496:	d579                	beqz	a0,2464 <_realloc_r+0x2e>
    2498:	8622                	mv	a2,s0
    249a:	0089f363          	bgeu	s3,s0,24a0 <_realloc_r+0x6a>
    249e:	864e                	mv	a2,s3
    24a0:	85ca                	mv	a1,s2
    24a2:	8526                	mv	a0,s1
    24a4:	8d3ff0ef          	jal	ra,1d76 <memcpy>
    24a8:	85ca                	mv	a1,s2
    24aa:	8552                	mv	a0,s4
    24ac:	d54ff0ef          	jal	ra,1a00 <_free_r>
    24b0:	bf55                	j	2464 <_realloc_r+0x2e>

000024b2 <_printf_common>:
    24b2:	7179                	addi	sp,sp,-48
    24b4:	cc52                	sw	s4,24(sp)
    24b6:	499c                	lw	a5,16(a1)
    24b8:	8a3a                	mv	s4,a4
    24ba:	4598                	lw	a4,8(a1)
    24bc:	d422                	sw	s0,40(sp)
    24be:	d04a                	sw	s2,32(sp)
    24c0:	ce4e                	sw	s3,28(sp)
    24c2:	ca56                	sw	s5,20(sp)
    24c4:	d606                	sw	ra,44(sp)
    24c6:	d226                	sw	s1,36(sp)
    24c8:	c85a                	sw	s6,16(sp)
    24ca:	c65e                	sw	s7,12(sp)
    24cc:	89aa                	mv	s3,a0
    24ce:	842e                	mv	s0,a1
    24d0:	8932                	mv	s2,a2
    24d2:	8ab6                	mv	s5,a3
    24d4:	00e7d363          	bge	a5,a4,24da <_printf_common+0x28>
    24d8:	87ba                	mv	a5,a4
    24da:	00f92023          	sw	a5,0(s2)
    24de:	04344703          	lbu	a4,67(s0)
    24e2:	c701                	beqz	a4,24ea <_printf_common+0x38>
    24e4:	0785                	addi	a5,a5,1
    24e6:	00f92023          	sw	a5,0(s2)
    24ea:	401c                	lw	a5,0(s0)
    24ec:	0207f793          	andi	a5,a5,32
    24f0:	c791                	beqz	a5,24fc <_printf_common+0x4a>
    24f2:	00092783          	lw	a5,0(s2)
    24f6:	0789                	addi	a5,a5,2
    24f8:	00f92023          	sw	a5,0(s2)
    24fc:	4004                	lw	s1,0(s0)
    24fe:	8899                	andi	s1,s1,6
    2500:	e891                	bnez	s1,2514 <_printf_common+0x62>
    2502:	01940b13          	addi	s6,s0,25
    2506:	5bfd                	li	s7,-1
    2508:	445c                	lw	a5,12(s0)
    250a:	00092703          	lw	a4,0(s2)
    250e:	8f99                	sub	a5,a5,a4
    2510:	04f4cc63          	blt	s1,a5,2568 <_printf_common+0xb6>
    2514:	04344783          	lbu	a5,67(s0)
    2518:	00f036b3          	snez	a3,a5
    251c:	401c                	lw	a5,0(s0)
    251e:	0207f793          	andi	a5,a5,32
    2522:	eba5                	bnez	a5,2592 <_printf_common+0xe0>
    2524:	04340613          	addi	a2,s0,67
    2528:	85d6                	mv	a1,s5
    252a:	854e                	mv	a0,s3
    252c:	9a02                	jalr	s4
    252e:	57fd                	li	a5,-1
    2530:	04f50363          	beq	a0,a5,2576 <_printf_common+0xc4>
    2534:	401c                	lw	a5,0(s0)
    2536:	4711                	li	a4,4
    2538:	4481                	li	s1,0
    253a:	8b99                	andi	a5,a5,6
    253c:	00e79963          	bne	a5,a4,254e <_printf_common+0x9c>
    2540:	4444                	lw	s1,12(s0)
    2542:	00092783          	lw	a5,0(s2)
    2546:	8c9d                	sub	s1,s1,a5
    2548:	0004d363          	bgez	s1,254e <_printf_common+0x9c>
    254c:	4481                	li	s1,0
    254e:	441c                	lw	a5,8(s0)
    2550:	4818                	lw	a4,16(s0)
    2552:	00f75463          	bge	a4,a5,255a <_printf_common+0xa8>
    2556:	8f99                	sub	a5,a5,a4
    2558:	94be                	add	s1,s1,a5
    255a:	4901                	li	s2,0
    255c:	0469                	addi	s0,s0,26
    255e:	5b7d                	li	s6,-1
    2560:	05249863          	bne	s1,s2,25b0 <_printf_common+0xfe>
    2564:	4501                	li	a0,0
    2566:	a809                	j	2578 <_printf_common+0xc6>
    2568:	4685                	li	a3,1
    256a:	865a                	mv	a2,s6
    256c:	85d6                	mv	a1,s5
    256e:	854e                	mv	a0,s3
    2570:	9a02                	jalr	s4
    2572:	01751e63          	bne	a0,s7,258e <_printf_common+0xdc>
    2576:	557d                	li	a0,-1
    2578:	50b2                	lw	ra,44(sp)
    257a:	5422                	lw	s0,40(sp)
    257c:	5492                	lw	s1,36(sp)
    257e:	5902                	lw	s2,32(sp)
    2580:	49f2                	lw	s3,28(sp)
    2582:	4a62                	lw	s4,24(sp)
    2584:	4ad2                	lw	s5,20(sp)
    2586:	4b42                	lw	s6,16(sp)
    2588:	4bb2                	lw	s7,12(sp)
    258a:	6145                	addi	sp,sp,48
    258c:	8082                	ret
    258e:	0485                	addi	s1,s1,1
    2590:	bfa5                	j	2508 <_printf_common+0x56>
    2592:	00d40733          	add	a4,s0,a3
    2596:	03000613          	li	a2,48
    259a:	04c701a3          	sb	a2,67(a4)
    259e:	04544703          	lbu	a4,69(s0)
    25a2:	00168793          	addi	a5,a3,1 # 1001 <__heap_size+0x1>
    25a6:	97a2                	add	a5,a5,s0
    25a8:	0689                	addi	a3,a3,2
    25aa:	04e781a3          	sb	a4,67(a5)
    25ae:	bf9d                	j	2524 <_printf_common+0x72>
    25b0:	4685                	li	a3,1
    25b2:	8622                	mv	a2,s0
    25b4:	85d6                	mv	a1,s5
    25b6:	854e                	mv	a0,s3
    25b8:	9a02                	jalr	s4
    25ba:	fb650ee3          	beq	a0,s6,2576 <_printf_common+0xc4>
    25be:	0905                	addi	s2,s2,1
    25c0:	b745                	j	2560 <_printf_common+0xae>

000025c2 <_printf_i>:
    25c2:	7179                	addi	sp,sp,-48
    25c4:	d422                	sw	s0,40(sp)
    25c6:	d226                	sw	s1,36(sp)
    25c8:	d04a                	sw	s2,32(sp)
    25ca:	ce4e                	sw	s3,28(sp)
    25cc:	d606                	sw	ra,44(sp)
    25ce:	cc52                	sw	s4,24(sp)
    25d0:	ca56                	sw	s5,20(sp)
    25d2:	c85a                	sw	s6,16(sp)
    25d4:	0185c883          	lbu	a7,24(a1)
    25d8:	07800793          	li	a5,120
    25dc:	84aa                	mv	s1,a0
    25de:	842e                	mv	s0,a1
    25e0:	8932                	mv	s2,a2
    25e2:	89b6                	mv	s3,a3
    25e4:	0117ee63          	bltu	a5,a7,2600 <_printf_i+0x3e>
    25e8:	06200793          	li	a5,98
    25ec:	04358693          	addi	a3,a1,67
    25f0:	0117ed63          	bltu	a5,a7,260a <_printf_i+0x48>
    25f4:	1a088963          	beqz	a7,27a6 <example_power_gating_all_domains.c.8e239270+0x1>
    25f8:	05800793          	li	a5,88
    25fc:	16f88b63          	beq	a7,a5,2772 <_printf_i+0x1b0>
    2600:	04240a93          	addi	s5,s0,66
    2604:	05140123          	sb	a7,66(s0)
    2608:	a805                	j	2638 <_printf_i+0x76>
    260a:	f9d88793          	addi	a5,a7,-99
    260e:	0ff7f793          	zext.b	a5,a5
    2612:	4655                	li	a2,21
    2614:	fef666e3          	bltu	a2,a5,2600 <_printf_i+0x3e>
    2618:	6621                	lui	a2,0x8
    261a:	078a                	slli	a5,a5,0x2
    261c:	51c60613          	addi	a2,a2,1308 # 851c <__sf_fake_stdout+0x5c>
    2620:	97b2                	add	a5,a5,a2
    2622:	439c                	lw	a5,0(a5)
    2624:	8782                	jr	a5
    2626:	431c                	lw	a5,0(a4)
    2628:	04258a93          	addi	s5,a1,66
    262c:	00478693          	addi	a3,a5,4
    2630:	439c                	lw	a5,0(a5)
    2632:	c314                	sw	a3,0(a4)
    2634:	04f58123          	sb	a5,66(a1)
    2638:	4785                	li	a5,1
    263a:	aa51                	j	27ce <example_power_gating_all_domains.c.8e239270+0x29>
    263c:	419c                	lw	a5,0(a1)
    263e:	4308                	lw	a0,0(a4)
    2640:	0807f613          	andi	a2,a5,128
    2644:	00450593          	addi	a1,a0,4
    2648:	c205                	beqz	a2,2668 <_printf_i+0xa6>
    264a:	411c                	lw	a5,0(a0)
    264c:	c30c                	sw	a1,0(a4)
    264e:	6821                	lui	a6,0x8
    2650:	0007d863          	bgez	a5,2660 <_printf_i+0x9e>
    2654:	02d00713          	li	a4,45
    2658:	40f007b3          	neg	a5,a5
    265c:	04e401a3          	sb	a4,67(s0)
    2660:	4f480813          	addi	a6,a6,1268 # 84f4 <__sf_fake_stdout+0x34>
    2664:	4729                	li	a4,10
    2666:	a099                	j	26ac <_printf_i+0xea>
    2668:	0407f613          	andi	a2,a5,64
    266c:	411c                	lw	a5,0(a0)
    266e:	c30c                	sw	a1,0(a4)
    2670:	de79                	beqz	a2,264e <_printf_i+0x8c>
    2672:	07c2                	slli	a5,a5,0x10
    2674:	87c1                	srai	a5,a5,0x10
    2676:	bfe1                	j	264e <_printf_i+0x8c>
    2678:	4190                	lw	a2,0(a1)
    267a:	431c                	lw	a5,0(a4)
    267c:	08067513          	andi	a0,a2,128
    2680:	00478593          	addi	a1,a5,4
    2684:	c501                	beqz	a0,268c <_printf_i+0xca>
    2686:	c30c                	sw	a1,0(a4)
    2688:	439c                	lw	a5,0(a5)
    268a:	a039                	j	2698 <_printf_i+0xd6>
    268c:	04067613          	andi	a2,a2,64
    2690:	c30c                	sw	a1,0(a4)
    2692:	da7d                	beqz	a2,2688 <_printf_i+0xc6>
    2694:	0007d783          	lhu	a5,0(a5)
    2698:	6821                	lui	a6,0x8
    269a:	06f00713          	li	a4,111
    269e:	4f480813          	addi	a6,a6,1268 # 84f4 <__sf_fake_stdout+0x34>
    26a2:	0ce88c63          	beq	a7,a4,277a <_printf_i+0x1b8>
    26a6:	4729                	li	a4,10
    26a8:	040401a3          	sb	zero,67(s0)
    26ac:	4050                	lw	a2,4(s0)
    26ae:	c410                	sw	a2,8(s0)
    26b0:	00064563          	bltz	a2,26ba <_printf_i+0xf8>
    26b4:	400c                	lw	a1,0(s0)
    26b6:	99ed                	andi	a1,a1,-5
    26b8:	c00c                	sw	a1,0(s0)
    26ba:	e399                	bnez	a5,26c0 <_printf_i+0xfe>
    26bc:	8ab6                	mv	s5,a3
    26be:	ce19                	beqz	a2,26dc <_printf_i+0x11a>
    26c0:	8ab6                	mv	s5,a3
    26c2:	02e7f633          	remu	a2,a5,a4
    26c6:	1afd                	addi	s5,s5,-1
    26c8:	9642                	add	a2,a2,a6
    26ca:	00064603          	lbu	a2,0(a2)
    26ce:	00ca8023          	sb	a2,0(s5)
    26d2:	863e                	mv	a2,a5
    26d4:	02e7d7b3          	divu	a5,a5,a4
    26d8:	fee675e3          	bgeu	a2,a4,26c2 <_printf_i+0x100>
    26dc:	47a1                	li	a5,8
    26de:	00f71e63          	bne	a4,a5,26fa <_printf_i+0x138>
    26e2:	401c                	lw	a5,0(s0)
    26e4:	8b85                	andi	a5,a5,1
    26e6:	cb91                	beqz	a5,26fa <_printf_i+0x138>
    26e8:	4058                	lw	a4,4(s0)
    26ea:	481c                	lw	a5,16(s0)
    26ec:	00e7c763          	blt	a5,a4,26fa <_printf_i+0x138>
    26f0:	03000793          	li	a5,48
    26f4:	fefa8fa3          	sb	a5,-1(s5)
    26f8:	1afd                	addi	s5,s5,-1
    26fa:	415686b3          	sub	a3,a3,s5
    26fe:	c814                	sw	a3,16(s0)
    2700:	874e                	mv	a4,s3
    2702:	86ca                	mv	a3,s2
    2704:	0070                	addi	a2,sp,12
    2706:	85a2                	mv	a1,s0
    2708:	8526                	mv	a0,s1
    270a:	3365                	jal	24b2 <_printf_common>
    270c:	5a7d                	li	s4,-1
    270e:	0d451463          	bne	a0,s4,27d6 <example_power_gating_all_domains.c.8e239270+0x31>
    2712:	557d                	li	a0,-1
    2714:	50b2                	lw	ra,44(sp)
    2716:	5422                	lw	s0,40(sp)
    2718:	5492                	lw	s1,36(sp)
    271a:	5902                	lw	s2,32(sp)
    271c:	49f2                	lw	s3,28(sp)
    271e:	4a62                	lw	s4,24(sp)
    2720:	4ad2                	lw	s5,20(sp)
    2722:	4b42                	lw	s6,16(sp)
    2724:	6145                	addi	sp,sp,48
    2726:	8082                	ret
    2728:	419c                	lw	a5,0(a1)
    272a:	0207e793          	ori	a5,a5,32
    272e:	c19c                	sw	a5,0(a1)
    2730:	6821                	lui	a6,0x8
    2732:	07800893          	li	a7,120
    2736:	50880813          	addi	a6,a6,1288 # 8508 <__sf_fake_stdout+0x48>
    273a:	051402a3          	sb	a7,69(s0)
    273e:	4010                	lw	a2,0(s0)
    2740:	430c                	lw	a1,0(a4)
    2742:	08067513          	andi	a0,a2,128
    2746:	419c                	lw	a5,0(a1)
    2748:	0591                	addi	a1,a1,4
    274a:	e511                	bnez	a0,2756 <_printf_i+0x194>
    274c:	04067513          	andi	a0,a2,64
    2750:	c119                	beqz	a0,2756 <_printf_i+0x194>
    2752:	07c2                	slli	a5,a5,0x10
    2754:	83c1                	srli	a5,a5,0x10
    2756:	c30c                	sw	a1,0(a4)
    2758:	00167713          	andi	a4,a2,1
    275c:	c701                	beqz	a4,2764 <_printf_i+0x1a2>
    275e:	02066613          	ori	a2,a2,32
    2762:	c010                	sw	a2,0(s0)
    2764:	4741                	li	a4,16
    2766:	f3a9                	bnez	a5,26a8 <_printf_i+0xe6>
    2768:	4010                	lw	a2,0(s0)
    276a:	fdf67613          	andi	a2,a2,-33
    276e:	c010                	sw	a2,0(s0)
    2770:	bf25                	j	26a8 <_printf_i+0xe6>
    2772:	6821                	lui	a6,0x8
    2774:	4f480813          	addi	a6,a6,1268 # 84f4 <__sf_fake_stdout+0x34>
    2778:	b7c9                	j	273a <_printf_i+0x178>
    277a:	4721                	li	a4,8
    277c:	b735                	j	26a8 <_printf_i+0xe6>
    277e:	4190                	lw	a2,0(a1)
    2780:	431c                	lw	a5,0(a4)
    2782:	49cc                	lw	a1,20(a1)
    2784:	08067813          	andi	a6,a2,128
    2788:	00478513          	addi	a0,a5,4
    278c:	00080663          	beqz	a6,2798 <_printf_i+0x1d6>
    2790:	c308                	sw	a0,0(a4)
    2792:	439c                	lw	a5,0(a5)
    2794:	c38c                	sw	a1,0(a5)
    2796:	a801                	j	27a6 <example_power_gating_all_domains.c.8e239270+0x1>
    2798:	c308                	sw	a0,0(a4)
    279a:	04067613          	andi	a2,a2,64
    279e:	439c                	lw	a5,0(a5)
    27a0:	da75                	beqz	a2,2794 <_printf_i+0x1d2>
    27a2:	00b79023          	sh	a1,0(a5)
    27a6:	00042823          	sw	zero,16(s0)
    27aa:	8ab6                	mv	s5,a3
    27ac:	bf91                	j	2700 <_printf_i+0x13e>
    27ae:	431c                	lw	a5,0(a4)
    27b0:	41d0                	lw	a2,4(a1)
    27b2:	4581                	li	a1,0
    27b4:	00478693          	addi	a3,a5,4
    27b8:	c314                	sw	a3,0(a4)
    27ba:	0007aa83          	lw	s5,0(a5)
    27be:	8556                	mv	a0,s5
    27c0:	c37ff0ef          	jal	ra,23f6 <memchr>
    27c4:	c501                	beqz	a0,27cc <example_power_gating_all_domains.c.8e239270+0x27>
    27c6:	41550533          	sub	a0,a0,s5
    27ca:	c048                	sw	a0,4(s0)
    27cc:	405c                	lw	a5,4(s0)
    27ce:	c81c                	sw	a5,16(s0)
    27d0:	040401a3          	sb	zero,67(s0)
    27d4:	b735                	j	2700 <_printf_i+0x13e>
    27d6:	4814                	lw	a3,16(s0)
    27d8:	8656                	mv	a2,s5
    27da:	85ca                	mv	a1,s2
    27dc:	8526                	mv	a0,s1
    27de:	9982                	jalr	s3
    27e0:	f34509e3          	beq	a0,s4,2712 <_printf_i+0x150>
    27e4:	401c                	lw	a5,0(s0)
    27e6:	8b89                	andi	a5,a5,2
    27e8:	e78d                	bnez	a5,2812 <example_power_gating_all_domains.c.8e239270+0x6d>
    27ea:	47b2                	lw	a5,12(sp)
    27ec:	4448                	lw	a0,12(s0)
    27ee:	f2f553e3          	bge	a0,a5,2714 <_printf_i+0x152>
    27f2:	853e                	mv	a0,a5
    27f4:	b705                	j	2714 <_printf_i+0x152>
    27f6:	4685                	li	a3,1
    27f8:	8656                	mv	a2,s5
    27fa:	85ca                	mv	a1,s2
    27fc:	8526                	mv	a0,s1
    27fe:	9982                	jalr	s3
    2800:	f16509e3          	beq	a0,s6,2712 <_printf_i+0x150>
    2804:	0a05                	addi	s4,s4,1
    2806:	445c                	lw	a5,12(s0)
    2808:	4732                	lw	a4,12(sp)
    280a:	8f99                	sub	a5,a5,a4
    280c:	fefa45e3          	blt	s4,a5,27f6 <example_power_gating_all_domains.c.8e239270+0x51>
    2810:	bfe9                	j	27ea <example_power_gating_all_domains.c.8e239270+0x45>
    2812:	4a01                	li	s4,0
    2814:	01940a93          	addi	s5,s0,25
    2818:	5b7d                	li	s6,-1
    281a:	b7f5                	j	2806 <example_power_gating_all_domains.c.8e239270+0x61>

0000281c <_malloc_usable_size_r>:
    281c:	ffc5a783          	lw	a5,-4(a1)
    2820:	ffc78513          	addi	a0,a5,-4
    2824:	0007d563          	bgez	a5,282e <_malloc_usable_size_r+0x12>
    2828:	95aa                	add	a1,a1,a0
    282a:	419c                	lw	a5,0(a1)
    282c:	953e                	add	a0,a0,a5
    282e:	8082                	ret

00002830 <__divdi3>:
    2830:	832a                	mv	t1,a0
    2832:	8e2e                	mv	t3,a1
    2834:	4881                	li	a7,0
    2836:	0005db63          	bgez	a1,284c <__divdi3+0x1c>
    283a:	00a037b3          	snez	a5,a0
    283e:	40b00e33          	neg	t3,a1
    2842:	40fe0e33          	sub	t3,t3,a5
    2846:	40a00333          	neg	t1,a0
    284a:	58fd                	li	a7,-1
    284c:	0006db63          	bgez	a3,2862 <__divdi3+0x32>
    2850:	00c037b3          	snez	a5,a2
    2854:	40d006b3          	neg	a3,a3
    2858:	fff8c893          	not	a7,a7
    285c:	8e9d                	sub	a3,a3,a5
    285e:	40c00633          	neg	a2,a2
    2862:	8732                	mv	a4,a2
    2864:	881a                	mv	a6,t1
    2866:	87f2                	mv	a5,t3
    2868:	20069e63          	bnez	a3,2a84 <__divdi3+0x254>
    286c:	65a1                	lui	a1,0x8
    286e:	57458593          	addi	a1,a1,1396 # 8574 <__clz_tab>
    2872:	0cce7163          	bgeu	t3,a2,2934 <__divdi3+0x104>
    2876:	66c1                	lui	a3,0x10
    2878:	0ad67763          	bgeu	a2,a3,2926 <__divdi3+0xf6>
    287c:	10063693          	sltiu	a3,a2,256
    2880:	0016c693          	xori	a3,a3,1
    2884:	068e                	slli	a3,a3,0x3
    2886:	00d65533          	srl	a0,a2,a3
    288a:	95aa                	add	a1,a1,a0
    288c:	0005c583          	lbu	a1,0(a1)
    2890:	02000513          	li	a0,32
    2894:	96ae                	add	a3,a3,a1
    2896:	40d505b3          	sub	a1,a0,a3
    289a:	00d50b63          	beq	a0,a3,28b0 <__divdi3+0x80>
    289e:	00be17b3          	sll	a5,t3,a1
    28a2:	00d356b3          	srl	a3,t1,a3
    28a6:	00b61733          	sll	a4,a2,a1
    28aa:	8fd5                	or	a5,a5,a3
    28ac:	00b31833          	sll	a6,t1,a1
    28b0:	01075593          	srli	a1,a4,0x10
    28b4:	02b7de33          	divu	t3,a5,a1
    28b8:	01071613          	slli	a2,a4,0x10
    28bc:	8241                	srli	a2,a2,0x10
    28be:	02b7f7b3          	remu	a5,a5,a1
    28c2:	8572                	mv	a0,t3
    28c4:	03c60333          	mul	t1,a2,t3
    28c8:	01079693          	slli	a3,a5,0x10
    28cc:	01085793          	srli	a5,a6,0x10
    28d0:	8fd5                	or	a5,a5,a3
    28d2:	0067fc63          	bgeu	a5,t1,28ea <__divdi3+0xba>
    28d6:	97ba                	add	a5,a5,a4
    28d8:	fffe0513          	addi	a0,t3,-1
    28dc:	00e7e763          	bltu	a5,a4,28ea <__divdi3+0xba>
    28e0:	0067f563          	bgeu	a5,t1,28ea <__divdi3+0xba>
    28e4:	ffee0513          	addi	a0,t3,-2
    28e8:	97ba                	add	a5,a5,a4
    28ea:	406787b3          	sub	a5,a5,t1
    28ee:	02b7d333          	divu	t1,a5,a1
    28f2:	0842                	slli	a6,a6,0x10
    28f4:	01085813          	srli	a6,a6,0x10
    28f8:	02b7f7b3          	remu	a5,a5,a1
    28fc:	026606b3          	mul	a3,a2,t1
    2900:	07c2                	slli	a5,a5,0x10
    2902:	00f86833          	or	a6,a6,a5
    2906:	879a                	mv	a5,t1
    2908:	00d87b63          	bgeu	a6,a3,291e <__divdi3+0xee>
    290c:	983a                	add	a6,a6,a4
    290e:	fff30793          	addi	a5,t1,-1
    2912:	00e86663          	bltu	a6,a4,291e <__divdi3+0xee>
    2916:	00d87463          	bgeu	a6,a3,291e <__divdi3+0xee>
    291a:	ffe30793          	addi	a5,t1,-2
    291e:	0542                	slli	a0,a0,0x10
    2920:	8d5d                	or	a0,a0,a5
    2922:	4581                	li	a1,0
    2924:	a84d                	j	29d6 <__divdi3+0x1a6>
    2926:	01000537          	lui	a0,0x1000
    292a:	46c1                	li	a3,16
    292c:	f4a66de3          	bltu	a2,a0,2886 <__divdi3+0x56>
    2930:	46e1                	li	a3,24
    2932:	bf91                	j	2886 <__divdi3+0x56>
    2934:	e211                	bnez	a2,2938 <__divdi3+0x108>
    2936:	9002                	ebreak
    2938:	67c1                	lui	a5,0x10
    293a:	0af67863          	bgeu	a2,a5,29ea <__divdi3+0x1ba>
    293e:	10063693          	sltiu	a3,a2,256
    2942:	0016c693          	xori	a3,a3,1
    2946:	068e                	slli	a3,a3,0x3
    2948:	00d657b3          	srl	a5,a2,a3
    294c:	95be                	add	a1,a1,a5
    294e:	0005c783          	lbu	a5,0(a1)
    2952:	97b6                	add	a5,a5,a3
    2954:	02000693          	li	a3,32
    2958:	40f685b3          	sub	a1,a3,a5
    295c:	08f69e63          	bne	a3,a5,29f8 <__divdi3+0x1c8>
    2960:	40ce07b3          	sub	a5,t3,a2
    2964:	4585                	li	a1,1
    2966:	01075313          	srli	t1,a4,0x10
    296a:	0267deb3          	divu	t4,a5,t1
    296e:	01071613          	slli	a2,a4,0x10
    2972:	8241                	srli	a2,a2,0x10
    2974:	01085693          	srli	a3,a6,0x10
    2978:	0267f7b3          	remu	a5,a5,t1
    297c:	8576                	mv	a0,t4
    297e:	03d60e33          	mul	t3,a2,t4
    2982:	07c2                	slli	a5,a5,0x10
    2984:	8fd5                	or	a5,a5,a3
    2986:	01c7fc63          	bgeu	a5,t3,299e <__divdi3+0x16e>
    298a:	97ba                	add	a5,a5,a4
    298c:	fffe8513          	addi	a0,t4,-1
    2990:	00e7e763          	bltu	a5,a4,299e <__divdi3+0x16e>
    2994:	01c7f563          	bgeu	a5,t3,299e <__divdi3+0x16e>
    2998:	ffee8513          	addi	a0,t4,-2
    299c:	97ba                	add	a5,a5,a4
    299e:	41c787b3          	sub	a5,a5,t3
    29a2:	0267de33          	divu	t3,a5,t1
    29a6:	0842                	slli	a6,a6,0x10
    29a8:	01085813          	srli	a6,a6,0x10
    29ac:	0267f7b3          	remu	a5,a5,t1
    29b0:	03c606b3          	mul	a3,a2,t3
    29b4:	07c2                	slli	a5,a5,0x10
    29b6:	00f86833          	or	a6,a6,a5
    29ba:	87f2                	mv	a5,t3
    29bc:	00d87b63          	bgeu	a6,a3,29d2 <__divdi3+0x1a2>
    29c0:	983a                	add	a6,a6,a4
    29c2:	fffe0793          	addi	a5,t3,-1
    29c6:	00e86663          	bltu	a6,a4,29d2 <__divdi3+0x1a2>
    29ca:	00d87463          	bgeu	a6,a3,29d2 <__divdi3+0x1a2>
    29ce:	ffee0793          	addi	a5,t3,-2
    29d2:	0542                	slli	a0,a0,0x10
    29d4:	8d5d                	or	a0,a0,a5
    29d6:	00088963          	beqz	a7,29e8 <__divdi3+0x1b8>
    29da:	00a037b3          	snez	a5,a0
    29de:	40b005b3          	neg	a1,a1
    29e2:	8d9d                	sub	a1,a1,a5
    29e4:	40a00533          	neg	a0,a0
    29e8:	8082                	ret
    29ea:	010007b7          	lui	a5,0x1000
    29ee:	46c1                	li	a3,16
    29f0:	f4f66ce3          	bltu	a2,a5,2948 <__divdi3+0x118>
    29f4:	46e1                	li	a3,24
    29f6:	bf89                	j	2948 <__divdi3+0x118>
    29f8:	00b61733          	sll	a4,a2,a1
    29fc:	00fe56b3          	srl	a3,t3,a5
    2a00:	01075513          	srli	a0,a4,0x10
    2a04:	00be1e33          	sll	t3,t3,a1
    2a08:	00f357b3          	srl	a5,t1,a5
    2a0c:	01c7e7b3          	or	a5,a5,t3
    2a10:	02a6de33          	divu	t3,a3,a0
    2a14:	01071613          	slli	a2,a4,0x10
    2a18:	8241                	srli	a2,a2,0x10
    2a1a:	00b31833          	sll	a6,t1,a1
    2a1e:	02a6f6b3          	remu	a3,a3,a0
    2a22:	03c60333          	mul	t1,a2,t3
    2a26:	01069593          	slli	a1,a3,0x10
    2a2a:	0107d693          	srli	a3,a5,0x10
    2a2e:	8ecd                	or	a3,a3,a1
    2a30:	85f2                	mv	a1,t3
    2a32:	0066fc63          	bgeu	a3,t1,2a4a <__divdi3+0x21a>
    2a36:	96ba                	add	a3,a3,a4
    2a38:	fffe0593          	addi	a1,t3,-1
    2a3c:	00e6e763          	bltu	a3,a4,2a4a <__divdi3+0x21a>
    2a40:	0066f563          	bgeu	a3,t1,2a4a <__divdi3+0x21a>
    2a44:	ffee0593          	addi	a1,t3,-2
    2a48:	96ba                	add	a3,a3,a4
    2a4a:	406686b3          	sub	a3,a3,t1
    2a4e:	02a6d333          	divu	t1,a3,a0
    2a52:	07c2                	slli	a5,a5,0x10
    2a54:	83c1                	srli	a5,a5,0x10
    2a56:	02a6f6b3          	remu	a3,a3,a0
    2a5a:	02660633          	mul	a2,a2,t1
    2a5e:	06c2                	slli	a3,a3,0x10
    2a60:	8fd5                	or	a5,a5,a3
    2a62:	869a                	mv	a3,t1
    2a64:	00c7fc63          	bgeu	a5,a2,2a7c <__divdi3+0x24c>
    2a68:	97ba                	add	a5,a5,a4
    2a6a:	fff30693          	addi	a3,t1,-1
    2a6e:	00e7e763          	bltu	a5,a4,2a7c <__divdi3+0x24c>
    2a72:	00c7f563          	bgeu	a5,a2,2a7c <__divdi3+0x24c>
    2a76:	ffe30693          	addi	a3,t1,-2
    2a7a:	97ba                	add	a5,a5,a4
    2a7c:	05c2                	slli	a1,a1,0x10
    2a7e:	8f91                	sub	a5,a5,a2
    2a80:	8dd5                	or	a1,a1,a3
    2a82:	b5d5                	j	2966 <__divdi3+0x136>
    2a84:	14de6063          	bltu	t3,a3,2bc4 <__divdi3+0x394>
    2a88:	67c1                	lui	a5,0x10
    2a8a:	02f6fe63          	bgeu	a3,a5,2ac6 <__divdi3+0x296>
    2a8e:	1006b713          	sltiu	a4,a3,256
    2a92:	00174713          	xori	a4,a4,1
    2a96:	070e                	slli	a4,a4,0x3
    2a98:	67a1                	lui	a5,0x8
    2a9a:	00e6d5b3          	srl	a1,a3,a4
    2a9e:	57478793          	addi	a5,a5,1396 # 8574 <__clz_tab>
    2aa2:	97ae                	add	a5,a5,a1
    2aa4:	0007c783          	lbu	a5,0(a5)
    2aa8:	97ba                	add	a5,a5,a4
    2aaa:	02000713          	li	a4,32
    2aae:	40f705b3          	sub	a1,a4,a5
    2ab2:	02f71163          	bne	a4,a5,2ad4 <__divdi3+0x2a4>
    2ab6:	4505                	li	a0,1
    2ab8:	f1c6efe3          	bltu	a3,t3,29d6 <__divdi3+0x1a6>
    2abc:	00c33533          	sltu	a0,t1,a2
    2ac0:	00154513          	xori	a0,a0,1
    2ac4:	bf09                	j	29d6 <__divdi3+0x1a6>
    2ac6:	010007b7          	lui	a5,0x1000
    2aca:	4741                	li	a4,16
    2acc:	fcf6e6e3          	bltu	a3,a5,2a98 <__divdi3+0x268>
    2ad0:	4761                	li	a4,24
    2ad2:	b7d9                	j	2a98 <__divdi3+0x268>
    2ad4:	00f65733          	srl	a4,a2,a5
    2ad8:	00b696b3          	sll	a3,a3,a1
    2adc:	8ed9                	or	a3,a3,a4
    2ade:	00fe5733          	srl	a4,t3,a5
    2ae2:	00be1e33          	sll	t3,t3,a1
    2ae6:	00f357b3          	srl	a5,t1,a5
    2aea:	01c7e7b3          	or	a5,a5,t3
    2aee:	0106de13          	srli	t3,a3,0x10
    2af2:	03c75f33          	divu	t5,a4,t3
    2af6:	01069813          	slli	a6,a3,0x10
    2afa:	01085813          	srli	a6,a6,0x10
    2afe:	00b61633          	sll	a2,a2,a1
    2b02:	03c77733          	remu	a4,a4,t3
    2b06:	03e80eb3          	mul	t4,a6,t5
    2b0a:	01071513          	slli	a0,a4,0x10
    2b0e:	0107d713          	srli	a4,a5,0x10
    2b12:	8f49                	or	a4,a4,a0
    2b14:	857a                	mv	a0,t5
    2b16:	01d77c63          	bgeu	a4,t4,2b2e <__divdi3+0x2fe>
    2b1a:	9736                	add	a4,a4,a3
    2b1c:	ffff0513          	addi	a0,t5,-1
    2b20:	00d76763          	bltu	a4,a3,2b2e <__divdi3+0x2fe>
    2b24:	01d77563          	bgeu	a4,t4,2b2e <__divdi3+0x2fe>
    2b28:	ffef0513          	addi	a0,t5,-2
    2b2c:	9736                	add	a4,a4,a3
    2b2e:	41d70733          	sub	a4,a4,t4
    2b32:	03c75eb3          	divu	t4,a4,t3
    2b36:	07c2                	slli	a5,a5,0x10
    2b38:	83c1                	srli	a5,a5,0x10
    2b3a:	03c77733          	remu	a4,a4,t3
    2b3e:	03d80833          	mul	a6,a6,t4
    2b42:	0742                	slli	a4,a4,0x10
    2b44:	8fd9                	or	a5,a5,a4
    2b46:	8776                	mv	a4,t4
    2b48:	0107fc63          	bgeu	a5,a6,2b60 <__divdi3+0x330>
    2b4c:	97b6                	add	a5,a5,a3
    2b4e:	fffe8713          	addi	a4,t4,-1
    2b52:	00d7e763          	bltu	a5,a3,2b60 <__divdi3+0x330>
    2b56:	0107f563          	bgeu	a5,a6,2b60 <__divdi3+0x330>
    2b5a:	ffee8713          	addi	a4,t4,-2
    2b5e:	97b6                	add	a5,a5,a3
    2b60:	0542                	slli	a0,a0,0x10
    2b62:	6ec1                	lui	t4,0x10
    2b64:	8d59                	or	a0,a0,a4
    2b66:	fffe8693          	addi	a3,t4,-1 # ffff <_sp+0x585f>
    2b6a:	00d57733          	and	a4,a0,a3
    2b6e:	410787b3          	sub	a5,a5,a6
    2b72:	8ef1                	and	a3,a3,a2
    2b74:	01055813          	srli	a6,a0,0x10
    2b78:	8241                	srli	a2,a2,0x10
    2b7a:	02d70e33          	mul	t3,a4,a3
    2b7e:	02d806b3          	mul	a3,a6,a3
    2b82:	02c70733          	mul	a4,a4,a2
    2b86:	02c80833          	mul	a6,a6,a2
    2b8a:	00d70633          	add	a2,a4,a3
    2b8e:	010e5713          	srli	a4,t3,0x10
    2b92:	9732                	add	a4,a4,a2
    2b94:	00d77363          	bgeu	a4,a3,2b9a <__divdi3+0x36a>
    2b98:	9876                	add	a6,a6,t4
    2b9a:	01075693          	srli	a3,a4,0x10
    2b9e:	96c2                	add	a3,a3,a6
    2ba0:	02d7e063          	bltu	a5,a3,2bc0 <__divdi3+0x390>
    2ba4:	d6d79fe3          	bne	a5,a3,2922 <__divdi3+0xf2>
    2ba8:	67c1                	lui	a5,0x10
    2baa:	17fd                	addi	a5,a5,-1
    2bac:	8f7d                	and	a4,a4,a5
    2bae:	0742                	slli	a4,a4,0x10
    2bb0:	00fe7e33          	and	t3,t3,a5
    2bb4:	00b31333          	sll	t1,t1,a1
    2bb8:	9772                	add	a4,a4,t3
    2bba:	4581                	li	a1,0
    2bbc:	e0e37de3          	bgeu	t1,a4,29d6 <__divdi3+0x1a6>
    2bc0:	157d                	addi	a0,a0,-1
    2bc2:	b385                	j	2922 <__divdi3+0xf2>
    2bc4:	4581                	li	a1,0
    2bc6:	4501                	li	a0,0
    2bc8:	b539                	j	29d6 <__divdi3+0x1a6>

00002bca <__udivdi3>:
    2bca:	832a                	mv	t1,a0
    2bcc:	88ae                	mv	a7,a1
    2bce:	8732                	mv	a4,a2
    2bd0:	882a                	mv	a6,a0
    2bd2:	87ae                	mv	a5,a1
    2bd4:	20069563          	bnez	a3,2dde <__udivdi3+0x214>
    2bd8:	65a1                	lui	a1,0x8
    2bda:	57458593          	addi	a1,a1,1396 # 8574 <__clz_tab>
    2bde:	0cc8f163          	bgeu	a7,a2,2ca0 <__udivdi3+0xd6>
    2be2:	66c1                	lui	a3,0x10
    2be4:	0ad67763          	bgeu	a2,a3,2c92 <__udivdi3+0xc8>
    2be8:	10063693          	sltiu	a3,a2,256
    2bec:	0016c693          	xori	a3,a3,1
    2bf0:	068e                	slli	a3,a3,0x3
    2bf2:	00d65533          	srl	a0,a2,a3
    2bf6:	95aa                	add	a1,a1,a0
    2bf8:	0005c583          	lbu	a1,0(a1)
    2bfc:	02000513          	li	a0,32
    2c00:	96ae                	add	a3,a3,a1
    2c02:	40d505b3          	sub	a1,a0,a3
    2c06:	00d50b63          	beq	a0,a3,2c1c <__udivdi3+0x52>
    2c0a:	00b897b3          	sll	a5,a7,a1
    2c0e:	00d356b3          	srl	a3,t1,a3
    2c12:	00b61733          	sll	a4,a2,a1
    2c16:	8fd5                	or	a5,a5,a3
    2c18:	00b31833          	sll	a6,t1,a1
    2c1c:	01075593          	srli	a1,a4,0x10
    2c20:	02b7d333          	divu	t1,a5,a1
    2c24:	01071613          	slli	a2,a4,0x10
    2c28:	8241                	srli	a2,a2,0x10
    2c2a:	02b7f7b3          	remu	a5,a5,a1
    2c2e:	851a                	mv	a0,t1
    2c30:	026608b3          	mul	a7,a2,t1
    2c34:	01079693          	slli	a3,a5,0x10
    2c38:	01085793          	srli	a5,a6,0x10
    2c3c:	8fd5                	or	a5,a5,a3
    2c3e:	0117fc63          	bgeu	a5,a7,2c56 <__udivdi3+0x8c>
    2c42:	97ba                	add	a5,a5,a4
    2c44:	fff30513          	addi	a0,t1,-1
    2c48:	00e7e763          	bltu	a5,a4,2c56 <__udivdi3+0x8c>
    2c4c:	0117f563          	bgeu	a5,a7,2c56 <__udivdi3+0x8c>
    2c50:	ffe30513          	addi	a0,t1,-2
    2c54:	97ba                	add	a5,a5,a4
    2c56:	411787b3          	sub	a5,a5,a7
    2c5a:	02b7d8b3          	divu	a7,a5,a1
    2c5e:	0842                	slli	a6,a6,0x10
    2c60:	01085813          	srli	a6,a6,0x10
    2c64:	02b7f7b3          	remu	a5,a5,a1
    2c68:	031606b3          	mul	a3,a2,a7
    2c6c:	07c2                	slli	a5,a5,0x10
    2c6e:	00f86833          	or	a6,a6,a5
    2c72:	87c6                	mv	a5,a7
    2c74:	00d87b63          	bgeu	a6,a3,2c8a <__udivdi3+0xc0>
    2c78:	983a                	add	a6,a6,a4
    2c7a:	fff88793          	addi	a5,a7,-1
    2c7e:	00e86663          	bltu	a6,a4,2c8a <__udivdi3+0xc0>
    2c82:	00d87463          	bgeu	a6,a3,2c8a <__udivdi3+0xc0>
    2c86:	ffe88793          	addi	a5,a7,-2
    2c8a:	0542                	slli	a0,a0,0x10
    2c8c:	8d5d                	or	a0,a0,a5
    2c8e:	4581                	li	a1,0
    2c90:	8082                	ret
    2c92:	01000537          	lui	a0,0x1000
    2c96:	46c1                	li	a3,16
    2c98:	f4a66de3          	bltu	a2,a0,2bf2 <__udivdi3+0x28>
    2c9c:	46e1                	li	a3,24
    2c9e:	bf91                	j	2bf2 <__udivdi3+0x28>
    2ca0:	e211                	bnez	a2,2ca4 <__udivdi3+0xda>
    2ca2:	9002                	ebreak
    2ca4:	67c1                	lui	a5,0x10
    2ca6:	08f67f63          	bgeu	a2,a5,2d44 <__udivdi3+0x17a>
    2caa:	10063693          	sltiu	a3,a2,256
    2cae:	0016c693          	xori	a3,a3,1
    2cb2:	068e                	slli	a3,a3,0x3
    2cb4:	00d657b3          	srl	a5,a2,a3
    2cb8:	95be                	add	a1,a1,a5
    2cba:	0005c783          	lbu	a5,0(a1)
    2cbe:	97b6                	add	a5,a5,a3
    2cc0:	02000693          	li	a3,32
    2cc4:	40f685b3          	sub	a1,a3,a5
    2cc8:	08f69563          	bne	a3,a5,2d52 <__udivdi3+0x188>
    2ccc:	40c887b3          	sub	a5,a7,a2
    2cd0:	4585                	li	a1,1
    2cd2:	01075893          	srli	a7,a4,0x10
    2cd6:	0317de33          	divu	t3,a5,a7
    2cda:	01071613          	slli	a2,a4,0x10
    2cde:	8241                	srli	a2,a2,0x10
    2ce0:	01085693          	srli	a3,a6,0x10
    2ce4:	0317f7b3          	remu	a5,a5,a7
    2ce8:	8572                	mv	a0,t3
    2cea:	03c60333          	mul	t1,a2,t3
    2cee:	07c2                	slli	a5,a5,0x10
    2cf0:	8fd5                	or	a5,a5,a3
    2cf2:	0067fc63          	bgeu	a5,t1,2d0a <__udivdi3+0x140>
    2cf6:	97ba                	add	a5,a5,a4
    2cf8:	fffe0513          	addi	a0,t3,-1
    2cfc:	00e7e763          	bltu	a5,a4,2d0a <__udivdi3+0x140>
    2d00:	0067f563          	bgeu	a5,t1,2d0a <__udivdi3+0x140>
    2d04:	ffee0513          	addi	a0,t3,-2
    2d08:	97ba                	add	a5,a5,a4
    2d0a:	406787b3          	sub	a5,a5,t1
    2d0e:	0317d333          	divu	t1,a5,a7
    2d12:	0842                	slli	a6,a6,0x10
    2d14:	01085813          	srli	a6,a6,0x10
    2d18:	0317f7b3          	remu	a5,a5,a7
    2d1c:	026606b3          	mul	a3,a2,t1
    2d20:	07c2                	slli	a5,a5,0x10
    2d22:	00f86833          	or	a6,a6,a5
    2d26:	879a                	mv	a5,t1
    2d28:	00d87b63          	bgeu	a6,a3,2d3e <__udivdi3+0x174>
    2d2c:	983a                	add	a6,a6,a4
    2d2e:	fff30793          	addi	a5,t1,-1
    2d32:	00e86663          	bltu	a6,a4,2d3e <__udivdi3+0x174>
    2d36:	00d87463          	bgeu	a6,a3,2d3e <__udivdi3+0x174>
    2d3a:	ffe30793          	addi	a5,t1,-2
    2d3e:	0542                	slli	a0,a0,0x10
    2d40:	8d5d                	or	a0,a0,a5
    2d42:	8082                	ret
    2d44:	010007b7          	lui	a5,0x1000
    2d48:	46c1                	li	a3,16
    2d4a:	f6f665e3          	bltu	a2,a5,2cb4 <__udivdi3+0xea>
    2d4e:	46e1                	li	a3,24
    2d50:	b795                	j	2cb4 <__udivdi3+0xea>
    2d52:	00b61733          	sll	a4,a2,a1
    2d56:	00f8d6b3          	srl	a3,a7,a5
    2d5a:	01075513          	srli	a0,a4,0x10
    2d5e:	00f357b3          	srl	a5,t1,a5
    2d62:	00b31833          	sll	a6,t1,a1
    2d66:	02a6d333          	divu	t1,a3,a0
    2d6a:	01071613          	slli	a2,a4,0x10
    2d6e:	00b898b3          	sll	a7,a7,a1
    2d72:	8241                	srli	a2,a2,0x10
    2d74:	0117e7b3          	or	a5,a5,a7
    2d78:	02a6f6b3          	remu	a3,a3,a0
    2d7c:	026608b3          	mul	a7,a2,t1
    2d80:	01069593          	slli	a1,a3,0x10
    2d84:	0107d693          	srli	a3,a5,0x10
    2d88:	8ecd                	or	a3,a3,a1
    2d8a:	859a                	mv	a1,t1
    2d8c:	0116fc63          	bgeu	a3,a7,2da4 <__udivdi3+0x1da>
    2d90:	96ba                	add	a3,a3,a4
    2d92:	fff30593          	addi	a1,t1,-1
    2d96:	00e6e763          	bltu	a3,a4,2da4 <__udivdi3+0x1da>
    2d9a:	0116f563          	bgeu	a3,a7,2da4 <__udivdi3+0x1da>
    2d9e:	ffe30593          	addi	a1,t1,-2
    2da2:	96ba                	add	a3,a3,a4
    2da4:	411686b3          	sub	a3,a3,a7
    2da8:	02a6d8b3          	divu	a7,a3,a0
    2dac:	07c2                	slli	a5,a5,0x10
    2dae:	83c1                	srli	a5,a5,0x10
    2db0:	02a6f6b3          	remu	a3,a3,a0
    2db4:	03160633          	mul	a2,a2,a7
    2db8:	06c2                	slli	a3,a3,0x10
    2dba:	8fd5                	or	a5,a5,a3
    2dbc:	86c6                	mv	a3,a7
    2dbe:	00c7fc63          	bgeu	a5,a2,2dd6 <__udivdi3+0x20c>
    2dc2:	97ba                	add	a5,a5,a4
    2dc4:	fff88693          	addi	a3,a7,-1
    2dc8:	00e7e763          	bltu	a5,a4,2dd6 <__udivdi3+0x20c>
    2dcc:	00c7f563          	bgeu	a5,a2,2dd6 <__udivdi3+0x20c>
    2dd0:	ffe88693          	addi	a3,a7,-2
    2dd4:	97ba                	add	a5,a5,a4
    2dd6:	05c2                	slli	a1,a1,0x10
    2dd8:	8f91                	sub	a5,a5,a2
    2dda:	8dd5                	or	a1,a1,a3
    2ddc:	bddd                	j	2cd2 <__udivdi3+0x108>
    2dde:	14d5e063          	bltu	a1,a3,2f1e <__udivdi3+0x354>
    2de2:	67c1                	lui	a5,0x10
    2de4:	02f6fe63          	bgeu	a3,a5,2e20 <__udivdi3+0x256>
    2de8:	1006b713          	sltiu	a4,a3,256
    2dec:	00174713          	xori	a4,a4,1
    2df0:	070e                	slli	a4,a4,0x3
    2df2:	67a1                	lui	a5,0x8
    2df4:	00e6d5b3          	srl	a1,a3,a4
    2df8:	57478793          	addi	a5,a5,1396 # 8574 <__clz_tab>
    2dfc:	97ae                	add	a5,a5,a1
    2dfe:	0007c783          	lbu	a5,0(a5)
    2e02:	97ba                	add	a5,a5,a4
    2e04:	02000713          	li	a4,32
    2e08:	40f705b3          	sub	a1,a4,a5
    2e0c:	02f71163          	bne	a4,a5,2e2e <__udivdi3+0x264>
    2e10:	4505                	li	a0,1
    2e12:	e716efe3          	bltu	a3,a7,2c90 <__udivdi3+0xc6>
    2e16:	00c33533          	sltu	a0,t1,a2
    2e1a:	00154513          	xori	a0,a0,1
    2e1e:	8082                	ret
    2e20:	010007b7          	lui	a5,0x1000
    2e24:	4741                	li	a4,16
    2e26:	fcf6e6e3          	bltu	a3,a5,2df2 <__udivdi3+0x228>
    2e2a:	4761                	li	a4,24
    2e2c:	b7d9                	j	2df2 <__udivdi3+0x228>
    2e2e:	00f65733          	srl	a4,a2,a5
    2e32:	00b696b3          	sll	a3,a3,a1
    2e36:	8ed9                	or	a3,a3,a4
    2e38:	00f8d733          	srl	a4,a7,a5
    2e3c:	00b898b3          	sll	a7,a7,a1
    2e40:	00f357b3          	srl	a5,t1,a5
    2e44:	0117e7b3          	or	a5,a5,a7
    2e48:	0106d893          	srli	a7,a3,0x10
    2e4c:	03175eb3          	divu	t4,a4,a7
    2e50:	01069813          	slli	a6,a3,0x10
    2e54:	01085813          	srli	a6,a6,0x10
    2e58:	00b61633          	sll	a2,a2,a1
    2e5c:	03177733          	remu	a4,a4,a7
    2e60:	03d80e33          	mul	t3,a6,t4
    2e64:	01071513          	slli	a0,a4,0x10
    2e68:	0107d713          	srli	a4,a5,0x10
    2e6c:	8f49                	or	a4,a4,a0
    2e6e:	8576                	mv	a0,t4
    2e70:	01c77c63          	bgeu	a4,t3,2e88 <__udivdi3+0x2be>
    2e74:	9736                	add	a4,a4,a3
    2e76:	fffe8513          	addi	a0,t4,-1
    2e7a:	00d76763          	bltu	a4,a3,2e88 <__udivdi3+0x2be>
    2e7e:	01c77563          	bgeu	a4,t3,2e88 <__udivdi3+0x2be>
    2e82:	ffee8513          	addi	a0,t4,-2
    2e86:	9736                	add	a4,a4,a3
    2e88:	41c70733          	sub	a4,a4,t3
    2e8c:	03175e33          	divu	t3,a4,a7
    2e90:	07c2                	slli	a5,a5,0x10
    2e92:	83c1                	srli	a5,a5,0x10
    2e94:	03177733          	remu	a4,a4,a7
    2e98:	03c80833          	mul	a6,a6,t3
    2e9c:	0742                	slli	a4,a4,0x10
    2e9e:	8fd9                	or	a5,a5,a4
    2ea0:	8772                	mv	a4,t3
    2ea2:	0107fc63          	bgeu	a5,a6,2eba <__udivdi3+0x2f0>
    2ea6:	97b6                	add	a5,a5,a3
    2ea8:	fffe0713          	addi	a4,t3,-1
    2eac:	00d7e763          	bltu	a5,a3,2eba <__udivdi3+0x2f0>
    2eb0:	0107f563          	bgeu	a5,a6,2eba <__udivdi3+0x2f0>
    2eb4:	ffee0713          	addi	a4,t3,-2
    2eb8:	97b6                	add	a5,a5,a3
    2eba:	0542                	slli	a0,a0,0x10
    2ebc:	6e41                	lui	t3,0x10
    2ebe:	8d59                	or	a0,a0,a4
    2ec0:	fffe0693          	addi	a3,t3,-1 # ffff <_sp+0x585f>
    2ec4:	00d57733          	and	a4,a0,a3
    2ec8:	410787b3          	sub	a5,a5,a6
    2ecc:	8ef1                	and	a3,a3,a2
    2ece:	01055813          	srli	a6,a0,0x10
    2ed2:	8241                	srli	a2,a2,0x10
    2ed4:	02d708b3          	mul	a7,a4,a3
    2ed8:	02d806b3          	mul	a3,a6,a3
    2edc:	02c70733          	mul	a4,a4,a2
    2ee0:	02c80833          	mul	a6,a6,a2
    2ee4:	00d70633          	add	a2,a4,a3
    2ee8:	0108d713          	srli	a4,a7,0x10
    2eec:	9732                	add	a4,a4,a2
    2eee:	00d77363          	bgeu	a4,a3,2ef4 <__udivdi3+0x32a>
    2ef2:	9872                	add	a6,a6,t3
    2ef4:	01075693          	srli	a3,a4,0x10
    2ef8:	96c2                	add	a3,a3,a6
    2efa:	02d7e063          	bltu	a5,a3,2f1a <__udivdi3+0x350>
    2efe:	d8d798e3          	bne	a5,a3,2c8e <__udivdi3+0xc4>
    2f02:	67c1                	lui	a5,0x10
    2f04:	17fd                	addi	a5,a5,-1
    2f06:	8f7d                	and	a4,a4,a5
    2f08:	0742                	slli	a4,a4,0x10
    2f0a:	00f8f8b3          	and	a7,a7,a5
    2f0e:	00b31333          	sll	t1,t1,a1
    2f12:	9746                	add	a4,a4,a7
    2f14:	4581                	li	a1,0
    2f16:	d6e37de3          	bgeu	t1,a4,2c90 <__udivdi3+0xc6>
    2f1a:	157d                	addi	a0,a0,-1
    2f1c:	bb8d                	j	2c8e <__udivdi3+0xc4>
    2f1e:	4581                	li	a1,0
    2f20:	4501                	li	a0,0
    2f22:	8082                	ret

Disassembly of section .power_manager:

00002f24 <__power_manager_start>:
	...
