
applications/hello_blade/hello_blade.elf:     file format elf32-littleriscv


Disassembly of section .vectors:

00000000 <__vector_start>:

.section .vectors, "ax"
.option norvc
vector_table:
	//  0 : exception Handler and user software interrupt
	j handler_exception
   0:	3520006f          	j	352 <handler_exception>
	//  1 : supervisor software interrupt
	j __no_irq_handler
   4:	22c0006f          	j	230 <__no_irq_handler>
	//  2 : unmapped
	j __no_irq_handler
   8:	2280006f          	j	230 <__no_irq_handler>
	//  3 : machine software interrupt handler
	j handler_irq_software
   c:	39e0006f          	j	3aa <handler_irq_software>
	//  4 : user timer interrupt
	j __no_irq_handler
  10:	2200006f          	j	230 <__no_irq_handler>
	//  5 : supervisor timer interrupt
	j __no_irq_handler
  14:	21c0006f          	j	230 <__no_irq_handler>
	//  6 : unmapped
	j __no_irq_handler
  18:	2180006f          	j	230 <__no_irq_handler>
	//  7 : machine timer interrupt handler
	j handler_irq_timer
  1c:	39c0006f          	j	3b8 <handler_irq_timer>
	//  8 : user external interrupt
	j __no_irq_handler
  20:	2100006f          	j	230 <__no_irq_handler>
	//  9 : supervisor external interrupt
	j __no_irq_handler
  24:	20c0006f          	j	230 <__no_irq_handler>
	// 10 : unmapped
	j __no_irq_handler
  28:	2080006f          	j	230 <__no_irq_handler>
	// 11 : machine external interrupt handler
	j handler_irq_external
  2c:	39a0006f          	j	3c6 <handler_irq_external>
	// 12 : unmapped
	j __no_irq_handler
  30:	2000006f          	j	230 <__no_irq_handler>
	// 13 : unmapped
	j __no_irq_handler
  34:	1fc0006f          	j	230 <__no_irq_handler>
	// 14 : unmapped
	j __no_irq_handler
  38:	1f80006f          	j	230 <__no_irq_handler>
	// 15 : unmapped
	j __no_irq_handler
  3c:	1f40006f          	j	230 <__no_irq_handler>
	// vendor interrupts: on Ibex interrupt ids 30-16 are the "fast" interrupts
	.rept 15
	j __no_irq_handler
	.endr
  40:	1f00006f          	j	230 <__no_irq_handler>
  44:	1ec0006f          	j	230 <__no_irq_handler>
  48:	1e80006f          	j	230 <__no_irq_handler>
  4c:	1e40006f          	j	230 <__no_irq_handler>
  50:	1e00006f          	j	230 <__no_irq_handler>
  54:	1dc0006f          	j	230 <__no_irq_handler>
  58:	1d80006f          	j	230 <__no_irq_handler>
  5c:	1d40006f          	j	230 <__no_irq_handler>
  60:	1d00006f          	j	230 <__no_irq_handler>
  64:	1cc0006f          	j	230 <__no_irq_handler>
  68:	1c80006f          	j	230 <__no_irq_handler>
  6c:	1c40006f          	j	230 <__no_irq_handler>
  70:	1c00006f          	j	230 <__no_irq_handler>
  74:	1bc0006f          	j	230 <__no_irq_handler>
  78:	1b80006f          	j	230 <__no_irq_handler>
	// vendor interrupts: on Ibex interrupt id 31 is for non-maskable interrupts
	j __no_irq_handler
  7c:	1b40006f          	j	230 <__no_irq_handler>
	// 64-32 : not connected on Ibex
	j verification_irq_handler
  80:	1c00006f          	j	240 <verification_irq_handler>
	j __no_irq_handler
  84:	1ac0006f          	j	230 <__no_irq_handler>
	j __no_irq_handler
  88:	1a80006f          	j	230 <__no_irq_handler>
	j __no_irq_handler
  8c:	1a40006f          	j	230 <__no_irq_handler>
	j __no_irq_handler
  90:	1a00006f          	j	230 <__no_irq_handler>
	j __no_irq_handler
  94:	19c0006f          	j	230 <__no_irq_handler>
	j __no_irq_handler
  98:	1980006f          	j	230 <__no_irq_handler>
	j __no_irq_handler
  9c:	1940006f          	j	230 <__no_irq_handler>
	j __no_irq_handler
  a0:	1900006f          	j	230 <__no_irq_handler>
	j __no_irq_handler
  a4:	18c0006f          	j	230 <__no_irq_handler>
	j __no_irq_handler
  a8:	1880006f          	j	230 <__no_irq_handler>
	j __no_irq_handler
  ac:	1840006f          	j	230 <__no_irq_handler>
	j __no_irq_handler
  b0:	1800006f          	j	230 <__no_irq_handler>
	j __no_irq_handler
  b4:	17c0006f          	j	230 <__no_irq_handler>
	j __no_irq_handler
  b8:	1780006f          	j	230 <__no_irq_handler>
	j __no_irq_handler
  bc:	1740006f          	j	230 <__no_irq_handler>
	j __no_irq_handler
  c0:	1700006f          	j	230 <__no_irq_handler>
	j __no_irq_handler
  c4:	16c0006f          	j	230 <__no_irq_handler>
	j __no_irq_handler
  c8:	1680006f          	j	230 <__no_irq_handler>
	j __no_irq_handler
  cc:	1640006f          	j	230 <__no_irq_handler>
	j __no_irq_handler
  d0:	1600006f          	j	230 <__no_irq_handler>
	j __no_irq_handler
  d4:	15c0006f          	j	230 <__no_irq_handler>
	j __no_irq_handler
  d8:	1580006f          	j	230 <__no_irq_handler>
	j __no_irq_handler
  dc:	1540006f          	j	230 <__no_irq_handler>
	j __no_irq_handler
  e0:	1500006f          	j	230 <__no_irq_handler>
	j __no_irq_handler
  e4:	14c0006f          	j	230 <__no_irq_handler>
	j __no_irq_handler
  e8:	1480006f          	j	230 <__no_irq_handler>
	j __no_irq_handler
  ec:	1440006f          	j	230 <__no_irq_handler>
	j __no_irq_handler
  f0:	1400006f          	j	230 <__no_irq_handler>
	j __no_irq_handler
  f4:	13c0006f          	j	230 <__no_irq_handler>
	j __no_irq_handler
  f8:	1380006f          	j	230 <__no_irq_handler>
	j __no_irq_handler
  fc:	1340006f          	j	230 <__no_irq_handler>
	j __no_irq_handler
 100:	1300006f          	j	230 <__no_irq_handler>

Disassembly of section .init:

00000180 <_start>:

_start:
/* initialize global pointer */
.option push
.option norelax
1:	auipc gp, %pcrel_hi(__global_pointer$)
 180:	00009197          	auipc	gp,0x9
	addi  gp, gp, %pcrel_lo(1b)
 184:	95c18193          	addi	gp,gp,-1700 # 8adc <__global_pointer$>
.option pop

/* initialize stack pointer */
	la sp, _sp
 188:	0000a117          	auipc	sp,0xa
 18c:	26810113          	addi	sp,sp,616 # a3f0 <_sp>

/* set vector table address and vectored mode */
	la a0, __vector_start
 190:	00000517          	auipc	a0,0x0
 194:	e7050513          	addi	a0,a0,-400 # 0 <__vector_start>
        ori a0, a0, 0x1
 198:	00156513          	ori	a0,a0,1
	csrw mtvec, a0
 19c:	30551073          	csrw	mtvec,a0

/* clear the bss segment */
	la a0, __bss_start
 1a0:	87018513          	addi	a0,gp,-1936 # 834c <errno>
	la a2, __bss_end
 1a4:	90c18613          	addi	a2,gp,-1780 # 83e8 <__BSS_END__>
	sub a2, a2, a0
 1a8:	8e09                	sub	a2,a2,a0
	li a1, 0
 1aa:	4581                	li	a1,0
	call memset
 1ac:	24d9                	jal	472 <memset>

/* new-style constructors and destructors */
	la a0, __libc_fini_array
 1ae:	00000517          	auipc	a0,0x0
 1b2:	23050513          	addi	a0,a0,560 # 3de <__libc_fini_array>
	call atexit
 1b6:	2c39                	jal	3d4 <atexit>
	call __libc_init_array
 1b8:	2cb1                	jal	414 <__libc_init_array>

/* call main */
	lw a0, 0(sp)                    /* a0 = argc */
 1ba:	4502                	lw	a0,0(sp)
	addi a1, sp, __SIZEOF_POINTER__ /* a1 = argv */
 1bc:	004c                	addi	a1,sp,4
	li a2, 0                        /* a2 = envp = NULL */
 1be:	4601                	li	a2,0
	call main
 1c0:	2035                	jal	1ec <main>
	tail exit
 1c2:	a019                	j	1c8 <exit>

000001c4 <_init>:
.global _init
.type   _init, @function
.global _fini
.type   _fini, @function
_init:
	call init
 1c4:	28c1                	jal	294 <init>

000001c6 <_fini>:
_fini:
 /* These don't have to do anything since we use init_array/fini_array. Prevent
    missing symbol error */
	ret
 1c6:	8082                	ret

Disassembly of section .text:

000001c8 <exit>:
     1c8:	1141                	addi	sp,sp,-16
     1ca:	6785                	lui	a5,0x1
     1cc:	c422                	sw	s0,8(sp)
     1ce:	c606                	sw	ra,12(sp)
     1d0:	89a78793          	addi	a5,a5,-1894 # 89a <__call_exitprocs>
     1d4:	842a                	mv	s0,a0
     1d6:	c781                	beqz	a5,1de <exit+0x16>
     1d8:	4581                	li	a1,0
     1da:	6c0000ef          	jal	ra,89a <__call_exitprocs>
     1de:	8601a503          	lw	a0,-1952(gp) # 833c <_global_impure_ptr>
     1e2:	551c                	lw	a5,40(a0)
     1e4:	c391                	beqz	a5,1e8 <exit+0x20>
     1e6:	9782                	jalr	a5
     1e8:	8522                	mv	a0,s0
     1ea:	284d                	jal	29c <_exit>

000001ec <main>:
#include <stdio.h>
#include <stdlib.h>
#include "core_v_mini_mcu.h"

int main(int argc, char *argv[])
{
     1ec:	1141                	addi	sp,sp,-16
     1ee:	c422                	sw	s0,8(sp)
    int blade_wvalue = 0xDA41DE;
    int blade_rvalue = 0;
    volatile unsigned int* blade_ptr =  (unsigned int*)EXT_SLAVE_START_ADDRESS;

    /* write something to stdout */
    printf("writing %x to blade!\n", blade_wvalue);
     1f0:	6521                	lui	a0,0x8
     1f2:	00da4437          	lui	s0,0xda4
     1f6:	1de40593          	addi	a1,s0,478 # da41de <_sp+0xd99dee>
     1fa:	0a850513          	addi	a0,a0,168 # 80a8 <no_exception_handler_msg+0xa8>
{
     1fe:	c606                	sw	ra,12(sp)
     200:	c226                	sw	s1,4(sp)
    printf("writing %x to blade!\n", blade_wvalue);
     202:	078010ef          	jal	ra,127a <iprintf>

    blade_ptr[0] = blade_wvalue;
     206:	300007b7          	lui	a5,0x30000
     20a:	1de40413          	addi	s0,s0,478
     20e:	c380                	sw	s0,0(a5)
    blade_rvalue = blade_ptr[0];
     210:	4384                	lw	s1,0(a5)

    printf("reading %x from blade!\n", blade_rvalue);
     212:	6521                	lui	a0,0x8
     214:	0c050513          	addi	a0,a0,192 # 80c0 <no_exception_handler_msg+0xc0>
     218:	85a6                	mv	a1,s1
     21a:	060010ef          	jal	ra,127a <iprintf>

    return blade_rvalue == blade_wvalue ? EXIT_SUCCESS : EXIT_FAILURE;
     21e:	40848533          	sub	a0,s1,s0
}
     222:	40b2                	lw	ra,12(sp)
     224:	4422                	lw	s0,8(sp)
     226:	4492                	lw	s1,4(sp)
     228:	00a03533          	snez	a0,a0
     22c:	0141                	addi	sp,sp,16
     22e:	8082                	ret

00000230 <__no_irq_handler>:
/*	j __no_irq_handler */

.section .text.vecs
/* exception handling */
__no_irq_handler:
	la a0, no_exception_handler_msg
     230:	00008517          	auipc	a0,0x8
     234:	dd050513          	addi	a0,a0,-560 # 8000 <no_exception_handler_msg>
	jal ra, puts
     238:	322000ef          	jal	ra,55a <puts>
	j __no_irq_handler
     23c:	ff5ff06f          	j	230 <__no_irq_handler>

00000240 <verification_irq_handler>:

/* this interrupt can be generated for verification purposes, random or when the PC is equal to a given value*/
verification_irq_handler:
	mret
     240:	30200073          	mret

00000244 <print_exc_msg>:
/**
 * Default Error Handling
 * @param msg error message supplied by caller
 * TODO - this will be soon by a real print formatting
 */
static void print_exc_msg(const char *msg) {
     244:	85aa                	mv	a1,a0
  printf("%s", msg);
     246:	6521                	lui	a0,0x8
static void print_exc_msg(const char *msg) {
     248:	1141                	addi	sp,sp,-16
  printf("%s", msg);
     24a:	02050513          	addi	a0,a0,32 # 8020 <no_exception_handler_msg+0x20>
static void print_exc_msg(const char *msg) {
     24e:	c606                	sw	ra,12(sp)
  printf("%s", msg);
     250:	02a010ef          	jal	ra,127a <iprintf>
  CSR_READ(CSR_REG_MTVAL, &mtval);
     254:	343025f3          	csrr	a1,mtval
  printf("MTVAL value is 0x%x\n", get_mtval());
     258:	6521                	lui	a0,0x8
     25a:	02450513          	addi	a0,a0,36 # 8024 <no_exception_handler_msg+0x24>
     25e:	01c010ef          	jal	ra,127a <iprintf>
  while (1) {
     262:	a001                	j	262 <print_exc_msg+0x1e>

00000264 <handler_instr_acc_fault>:
  printf("External IRQ triggered!\n");
  while (1) {
  }
}

__attribute__((weak)) void handler_instr_acc_fault(void) {
     264:	715d                	addi	sp,sp,-80
  const char fault_msg[] =
     266:	65a1                	lui	a1,0x8
     268:	03500613          	li	a2,53
     26c:	03c58593          	addi	a1,a1,60 # 803c <no_exception_handler_msg+0x3c>
     270:	0028                	addi	a0,sp,8
__attribute__((weak)) void handler_instr_acc_fault(void) {
     272:	c686                	sw	ra,76(sp)
  const char fault_msg[] =
     274:	7b9000ef          	jal	ra,122c <memcpy>
      "Instruction access fault, mtval shows fault address\n";
  print_exc_msg(fault_msg);
     278:	0028                	addi	a0,sp,8
     27a:	37e9                	jal	244 <print_exc_msg>

0000027c <handler_lsu_fault>:
  const char exc_msg[] =
      "Breakpoint triggerd, mtval shows the breakpoint address\n";
  print_exc_msg(exc_msg);
}

__attribute__((weak)) void handler_lsu_fault(void) {
     27c:	715d                	addi	sp,sp,-80
  const char exc_msg[] = "Load/Store fault, mtval shows the fault address\n";
     27e:	65a1                	lui	a1,0x8
     280:	03100613          	li	a2,49
     284:	07458593          	addi	a1,a1,116 # 8074 <no_exception_handler_msg+0x74>
     288:	0068                	addi	a0,sp,12
__attribute__((weak)) void handler_lsu_fault(void) {
     28a:	c686                	sw	ra,76(sp)
  const char exc_msg[] = "Load/Store fault, mtval shows the fault address\n";
     28c:	7a1000ef          	jal	ra,122c <memcpy>
  print_exc_msg(exc_msg);
     290:	0068                	addi	a0,sp,12
     292:	3f4d                	jal	244 <print_exc_msg>

00000294 <init>:
// Solderpad Hardware License, Version 2.1, see LICENSE.md for details.
// SPDX-License-Identifier: Apache-2.0 WITH SHL-2.1
int init()
{
    return 0;
     294:	4501                	li	a0,0
     296:	8082                	ret

00000298 <_close>:
}

int _close(int file)
{
    return -1;
}
     298:	557d                	li	a0,-1
     29a:	8082                	ret

0000029c <_exit>:
 * @param offset the offset to write at, in bytes.
 * @param value the value to write.
 */
inline void mmio_region_write32(mmio_region_t base, ptrdiff_t offset,
                                uint32_t value) {
  ((volatile uint32_t *)base.base)[offset / sizeof(uint32_t)] = value;
     29c:	200007b7          	lui	a5,0x20000
     2a0:	c3c8                	sw	a0,4(a5)
  ((volatile uint8_t *)base.base)[offset / sizeof(uint8_t)] = value;
     2a2:	4705                	li	a4,1
     2a4:	00e78023          	sb	a4,0(a5) # 20000000 <_sp+0x1fff5c10>
    soc_ctrl_t soc_ctrl;
    soc_ctrl.base_addr = mmio_region_from_addr((uintptr_t)SOC_CTRL_START_ADDRESS);
    soc_ctrl_set_exit_value(&soc_ctrl, exit_status);
    soc_ctrl_set_valid(&soc_ctrl, (uint8_t)1);

    asm volatile("wfi");
     2a8:	10500073          	wfi

000002ac <_fstat>:
    return -1;
}

int _fstat(int file, struct stat *st)
{
    st->st_mode = S_IFCHR;
     2ac:	6789                	lui	a5,0x2
     2ae:	c1dc                	sw	a5,4(a1)
    return 0;
    // errno = -ENOSYS;
    // return -1;
}
     2b0:	4501                	li	a0,0
     2b2:	8082                	ret

000002b4 <_isatty>:
    return -1;
}

int _isatty(int file)
{
    return (file == STDOUT_FILENO);
     2b4:	157d                	addi	a0,a0,-1
}
     2b6:	00153513          	seqz	a0,a0
     2ba:	8082                	ret

000002bc <_lseek>:
}

off_t _lseek(int file, off_t ptr, int dir)
{
    return 0;
}
     2bc:	4501                	li	a0,0
     2be:	8082                	ret

000002c0 <_read>:
}

ssize_t _read(int file, void *ptr, size_t len)
{
    return 0;
}
     2c0:	4501                	li	a0,0
     2c2:	8082                	ret

000002c4 <_write>:
    return -1;
}

ssize_t _write(int file, const void *ptr, size_t len)
{
    if (file != STDOUT_FILENO) {
     2c4:	4785                	li	a5,1
     2c6:	00f50863          	beq	a0,a5,2d6 <_write+0x12>
        errno = ENOSYS;
     2ca:	05800713          	li	a4,88
     2ce:	86e1a823          	sw	a4,-1936(gp) # 834c <errno>
        return -1;
     2d2:	557d                	li	a0,-1
     2d4:	8082                	ret
 * @param offset the offset to write at, in bytes.
 * @param value the value to write.
 */
inline void mmio_region_write32(mmio_region_t base, ptrdiff_t offset,
                                uint32_t value) {
  ((volatile uint32_t *)base.base)[offset / sizeof(uint32_t)] = value;
     2d6:	200107b7          	lui	a5,0x20010
     2da:	0007a623          	sw	zero,12(a5) # 2001000c <_sp+0x20005c1c>
     2de:	470d                	li	a4,3
     2e0:	cfd8                	sw	a4,28(a5)
     2e2:	0207a223          	sw	zero,36(a5)
     2e6:	0207a623          	sw	zero,44(a5)
     2ea:	0007a223          	sw	zero,4(a5)
     2ee:	577d                	li	a4,-1
     2f0:	c398                	sw	a4,0(a5)
     2f2:	ebed0737          	lui	a4,0xebed0
     2f6:	0705                	addi	a4,a4,1
     2f8:	c7d8                	sw	a4,12(a5)
     2fa:	0007a223          	sw	zero,4(a5)
     2fe:	00c586b3          	add	a3,a1,a2
  return ((volatile uint32_t *)base.base)[offset / sizeof(uint32_t)];
     302:	20010737          	lui	a4,0x20010
/**
 * Write `len` bytes to the UART TX FIFO.
 */
size_t uart_write(const uart_t *uart, const uint8_t *data, size_t len) {
  size_t total = len;
  while (len) {
     306:	00b69463          	bne	a3,a1,30e <_write+0x4a>
    if (uart_init(&uart) != kErrorOk) {
        errno = ENOSYS;
        return -1;
    }

    return uart_write(&uart,(uint8_t *)ptr,len);
     30a:	8532                	mv	a0,a2

}
     30c:	8082                	ret
    uart_putchar(uart, *data);
     30e:	0005c503          	lbu	a0,0(a1)
     312:	4b1c                	lw	a5,16(a4)
  while (uart_tx_full(uart)) {
     314:	8b85                	andi	a5,a5,1
     316:	fff5                	bnez	a5,312 <_write+0x4e>
  ((volatile uint32_t *)base.base)[offset / sizeof(uint32_t)] = value;
     318:	cf08                	sw	a0,24(a4)
  return ((volatile uint32_t *)base.base)[offset / sizeof(uint32_t)];
     31a:	4b1c                	lw	a5,16(a4)
 * @return Zero-extended `field` from `bitfield`.
 */
BITFIELD_WARN_UNUSED_RESULT
inline uint32_t bitfield_field32_read(uint32_t bitfield,
                                      bitfield_field32_t field) {
  return (bitfield >> field.index) & field.mask;
     31c:	838d                	srli	a5,a5,0x3
  while (!uart_tx_idle(uart)) {
     31e:	8b85                	andi	a5,a5,1
     320:	dfed                	beqz	a5,31a <_write+0x56>
    data++;
     322:	0585                	addi	a1,a1,1
    len--;
     324:	b7cd                	j	306 <_write+0x42>

00000326 <_sbrk>:

void *_sbrk(ptrdiff_t incr)
{
    char *old_brk = brk;

    if (__heap_start == __heap_end) {
     326:	6725                	lui	a4,0x9
    char *old_brk = brk;
     328:	86418793          	addi	a5,gp,-1948 # 8340 <brk>
    if (__heap_start == __heap_end) {
     32c:	90c18693          	addi	a3,gp,-1780 # 83e8 <__BSS_END__>
     330:	3e870713          	addi	a4,a4,1000 # 93e8 <__heap_end>
{
     334:	862a                	mv	a2,a0
    char *old_brk = brk;
     336:	4388                	lw	a0,0(a5)
    if (__heap_start == __heap_end) {
     338:	00e68b63          	beq	a3,a4,34e <_sbrk+0x28>
        return NULL;
    }

    if ((brk += incr) < __heap_end) {
     33c:	00c506b3          	add	a3,a0,a2
     340:	00e6f563          	bgeu	a3,a4,34a <_sbrk+0x24>
        brk += incr;
     344:	96b2                	add	a3,a3,a2
     346:	c394                	sw	a3,0(a5)
     348:	8082                	ret
    } else {
        brk = __heap_end;
     34a:	c398                	sw	a4,0(a5)
     34c:	8082                	ret
        return NULL;
     34e:	4501                	li	a0,0
    }
    return old_brk;
}
     350:	8082                	ret

00000352 <handler_exception>:
  CSR_READ(CSR_REG_MCAUSE, &mcause);
     352:	342027f3          	csrr	a5,mcause
  switch (exc_cause) {
     356:	472d                	li	a4,11
  exc_cause = (exc_id_t)(mcause & kIdMax);
     358:	8bfd                	andi	a5,a5,31
  switch (exc_cause) {
     35a:	04f76763          	bltu	a4,a5,3a8 <handler_exception+0x56>
     35e:	6721                	lui	a4,0x8
     360:	078a                	slli	a5,a5,0x2
     362:	17070713          	addi	a4,a4,368 # 8170 <no_exception_handler_msg+0x170>
     366:	97ba                	add	a5,a5,a4
     368:	439c                	lw	a5,0(a5)
__attribute__((weak)) void handler_exception(void) {
     36a:	715d                	addi	sp,sp,-80
     36c:	c686                	sw	ra,76(sp)
  switch (exc_cause) {
     36e:	8782                	jr	a5
      handler_instr_acc_fault();
     370:	3dd5                	jal	264 <handler_instr_acc_fault>
  const char fault_msg[] =
     372:	65a1                	lui	a1,0x8
     374:	03c00613          	li	a2,60
     378:	0f858593          	addi	a1,a1,248 # 80f8 <no_exception_handler_msg+0xf8>
     37c:	0048                	addi	a0,sp,4
     37e:	6af000ef          	jal	ra,122c <memcpy>
  print_exc_msg(fault_msg);
     382:	0048                	addi	a0,sp,4
     384:	35c1                	jal	244 <print_exc_msg>
  const char exc_msg[] =
     386:	65a1                	lui	a1,0x8
     388:	03900613          	li	a2,57
     38c:	13458593          	addi	a1,a1,308 # 8134 <no_exception_handler_msg+0x134>
     390:	0048                	addi	a0,sp,4
     392:	69b000ef          	jal	ra,122c <memcpy>
  print_exc_msg(exc_msg);
     396:	0048                	addi	a0,sp,4
     398:	3575                	jal	244 <print_exc_msg>
      handler_lsu_fault();
     39a:	35cd                	jal	27c <handler_lsu_fault>
}

__attribute__((weak)) void handler_ecall(void) {
  printf("Environment call encountered\n");
     39c:	6521                	lui	a0,0x8
     39e:	0d850513          	addi	a0,a0,216 # 80d8 <no_exception_handler_msg+0xd8>
     3a2:	2a65                	jal	55a <puts>
  while (1) {
     3a4:	a001                	j	3a4 <handler_exception+0x52>
      while (1) {
     3a6:	a001                	j	3a6 <handler_exception+0x54>
     3a8:	a001                	j	3a8 <handler_exception+0x56>

000003aa <handler_irq_software>:
  printf("Software IRQ triggered!\n");
     3aa:	6521                	lui	a0,0x8
__attribute__((weak)) void handler_irq_software(void) {
     3ac:	1141                	addi	sp,sp,-16
  printf("Software IRQ triggered!\n");
     3ae:	1a050513          	addi	a0,a0,416 # 81a0 <no_exception_handler_msg+0x1a0>
__attribute__((weak)) void handler_irq_software(void) {
     3b2:	c606                	sw	ra,12(sp)
  printf("Software IRQ triggered!\n");
     3b4:	225d                	jal	55a <puts>
  while (1) {
     3b6:	a001                	j	3b6 <handler_irq_software+0xc>

000003b8 <handler_irq_timer>:
  printf("Timer IRQ triggered!\n");
     3b8:	6521                	lui	a0,0x8
__attribute__((weak)) void handler_irq_timer(void) {
     3ba:	1141                	addi	sp,sp,-16
  printf("Timer IRQ triggered!\n");
     3bc:	1b850513          	addi	a0,a0,440 # 81b8 <no_exception_handler_msg+0x1b8>
__attribute__((weak)) void handler_irq_timer(void) {
     3c0:	c606                	sw	ra,12(sp)
  printf("Timer IRQ triggered!\n");
     3c2:	2a61                	jal	55a <puts>
  while (1) {
     3c4:	a001                	j	3c4 <handler_irq_timer+0xc>

000003c6 <handler_irq_external>:
  printf("External IRQ triggered!\n");
     3c6:	6521                	lui	a0,0x8
__attribute__((weak)) void handler_irq_external(void) {
     3c8:	1141                	addi	sp,sp,-16
  printf("External IRQ triggered!\n");
     3ca:	1d050513          	addi	a0,a0,464 # 81d0 <no_exception_handler_msg+0x1d0>
__attribute__((weak)) void handler_irq_external(void) {
     3ce:	c606                	sw	ra,12(sp)
  printf("External IRQ triggered!\n");
     3d0:	2269                	jal	55a <puts>
  while (1) {
     3d2:	a001                	j	3d2 <handler_irq_external+0xc>

000003d4 <atexit>:
     3d4:	85aa                	mv	a1,a0
     3d6:	4681                	li	a3,0
     3d8:	4601                	li	a2,0
     3da:	4501                	li	a0,0
     3dc:	a189                	j	81e <__register_exitproc>

000003de <__libc_fini_array>:
     3de:	1141                	addi	sp,sp,-16
     3e0:	67a1                	lui	a5,0x8
     3e2:	c422                	sw	s0,8(sp)
     3e4:	6421                	lui	s0,0x8
     3e6:	2dc78713          	addi	a4,a5,732 # 82dc <impure_data>
     3ea:	2dc40413          	addi	s0,s0,732 # 82dc <impure_data>
     3ee:	8c19                	sub	s0,s0,a4
     3f0:	c226                	sw	s1,4(sp)
     3f2:	c606                	sw	ra,12(sp)
     3f4:	8409                	srai	s0,s0,0x2
     3f6:	2dc78493          	addi	s1,a5,732
     3fa:	e411                	bnez	s0,406 <__libc_fini_array+0x28>
     3fc:	40b2                	lw	ra,12(sp)
     3fe:	4422                	lw	s0,8(sp)
     400:	4492                	lw	s1,4(sp)
     402:	0141                	addi	sp,sp,16
     404:	8082                	ret
     406:	147d                	addi	s0,s0,-1
     408:	00241793          	slli	a5,s0,0x2
     40c:	97a6                	add	a5,a5,s1
     40e:	439c                	lw	a5,0(a5)
     410:	9782                	jalr	a5
     412:	b7e5                	j	3fa <__libc_fini_array+0x1c>

00000414 <__libc_init_array>:
     414:	1141                	addi	sp,sp,-16
     416:	c422                	sw	s0,8(sp)
     418:	c226                	sw	s1,4(sp)
     41a:	6421                	lui	s0,0x8
     41c:	64a1                	lui	s1,0x8
     41e:	2dc48793          	addi	a5,s1,732 # 82dc <impure_data>
     422:	2dc40413          	addi	s0,s0,732 # 82dc <impure_data>
     426:	8c1d                	sub	s0,s0,a5
     428:	c04a                	sw	s2,0(sp)
     42a:	c606                	sw	ra,12(sp)
     42c:	8409                	srai	s0,s0,0x2
     42e:	2dc48493          	addi	s1,s1,732
     432:	4901                	li	s2,0
     434:	02891563          	bne	s2,s0,45e <__libc_init_array+0x4a>
     438:	64a1                	lui	s1,0x8
     43a:	6421                	lui	s0,0x8
     43c:	2dc48793          	addi	a5,s1,732 # 82dc <impure_data>
     440:	2dc40413          	addi	s0,s0,732 # 82dc <impure_data>
     444:	8c1d                	sub	s0,s0,a5
     446:	8409                	srai	s0,s0,0x2
     448:	2dc48493          	addi	s1,s1,732
     44c:	4901                	li	s2,0
     44e:	00891d63          	bne	s2,s0,468 <__libc_init_array+0x54>
     452:	40b2                	lw	ra,12(sp)
     454:	4422                	lw	s0,8(sp)
     456:	4492                	lw	s1,4(sp)
     458:	4902                	lw	s2,0(sp)
     45a:	0141                	addi	sp,sp,16
     45c:	8082                	ret
     45e:	409c                	lw	a5,0(s1)
     460:	0905                	addi	s2,s2,1
     462:	0491                	addi	s1,s1,4
     464:	9782                	jalr	a5
     466:	b7f9                	j	434 <__libc_init_array+0x20>
     468:	409c                	lw	a5,0(s1)
     46a:	0905                	addi	s2,s2,1
     46c:	0491                	addi	s1,s1,4
     46e:	9782                	jalr	a5
     470:	bff9                	j	44e <__libc_init_array+0x3a>

00000472 <memset>:
     472:	832a                	mv	t1,a0
     474:	c611                	beqz	a2,480 <memset+0xe>
     476:	00b30023          	sb	a1,0(t1)
     47a:	167d                	addi	a2,a2,-1
     47c:	0305                	addi	t1,t1,1
     47e:	fe65                	bnez	a2,476 <memset+0x4>
     480:	8082                	ret

00000482 <_puts_r>:
     482:	1101                	addi	sp,sp,-32
     484:	ca26                	sw	s1,20(sp)
     486:	c84a                	sw	s2,16(sp)
     488:	ce06                	sw	ra,28(sp)
     48a:	cc22                	sw	s0,24(sp)
     48c:	c64e                	sw	s3,12(sp)
     48e:	c452                	sw	s4,8(sp)
     490:	84aa                	mv	s1,a0
     492:	892e                	mv	s2,a1
     494:	c509                	beqz	a0,49e <_puts_r+0x1c>
     496:	4d1c                	lw	a5,24(a0)
     498:	e399                	bnez	a5,49e <_puts_r+0x1c>
     49a:	73c000ef          	jal	ra,bd6 <__sinit>
     49e:	4c9c                	lw	a5,24(s1)
     4a0:	4480                	lw	s0,8(s1)
     4a2:	e781                	bnez	a5,4aa <_puts_r+0x28>
     4a4:	8526                	mv	a0,s1
     4a6:	730000ef          	jal	ra,bd6 <__sinit>
     4aa:	67a1                	lui	a5,0x8
     4ac:	20878793          	addi	a5,a5,520 # 8208 <__sf_fake_stdin>
     4b0:	02f41c63          	bne	s0,a5,4e8 <_puts_r+0x66>
     4b4:	40c0                	lw	s0,4(s1)
     4b6:	00c45783          	lhu	a5,12(s0)
     4ba:	8ba1                	andi	a5,a5,8
     4bc:	c7a1                	beqz	a5,504 <_puts_r+0x82>
     4be:	481c                	lw	a5,16(s0)
     4c0:	c3b1                	beqz	a5,504 <_puts_r+0x82>
     4c2:	59fd                	li	s3,-1
     4c4:	4a29                	li	s4,10
     4c6:	441c                	lw	a5,8(s0)
     4c8:	00094583          	lbu	a1,0(s2)
     4cc:	17fd                	addi	a5,a5,-1
     4ce:	e9a1                	bnez	a1,51e <_puts_r+0x9c>
     4d0:	c41c                	sw	a5,8(s0)
     4d2:	0607dc63          	bgez	a5,54a <_puts_r+0xc8>
     4d6:	8622                	mv	a2,s0
     4d8:	45a9                	li	a1,10
     4da:	8526                	mv	a0,s1
     4dc:	2ab5                	jal	658 <__swbuf_r>
     4de:	57fd                	li	a5,-1
     4e0:	02f50663          	beq	a0,a5,50c <_puts_r+0x8a>
     4e4:	4529                	li	a0,10
     4e6:	a025                	j	50e <_puts_r+0x8c>
     4e8:	67a1                	lui	a5,0x8
     4ea:	22878793          	addi	a5,a5,552 # 8228 <__sf_fake_stdout>
     4ee:	00f41463          	bne	s0,a5,4f6 <_puts_r+0x74>
     4f2:	4480                	lw	s0,8(s1)
     4f4:	b7c9                	j	4b6 <_puts_r+0x34>
     4f6:	67a1                	lui	a5,0x8
     4f8:	1e878793          	addi	a5,a5,488 # 81e8 <__sf_fake_stderr>
     4fc:	faf41de3          	bne	s0,a5,4b6 <_puts_r+0x34>
     500:	44c0                	lw	s0,12(s1)
     502:	bf55                	j	4b6 <_puts_r+0x34>
     504:	85a2                	mv	a1,s0
     506:	8526                	mv	a0,s1
     508:	2c11                	jal	71c <__swsetup_r>
     50a:	dd45                	beqz	a0,4c2 <_puts_r+0x40>
     50c:	557d                	li	a0,-1
     50e:	40f2                	lw	ra,28(sp)
     510:	4462                	lw	s0,24(sp)
     512:	44d2                	lw	s1,20(sp)
     514:	4942                	lw	s2,16(sp)
     516:	49b2                	lw	s3,12(sp)
     518:	4a22                	lw	s4,8(sp)
     51a:	6105                	addi	sp,sp,32
     51c:	8082                	ret
     51e:	c41c                	sw	a5,8(s0)
     520:	0905                	addi	s2,s2,1
     522:	0007d763          	bgez	a5,530 <_puts_r+0xae>
     526:	4c18                	lw	a4,24(s0)
     528:	00e7cb63          	blt	a5,a4,53e <_puts_r+0xbc>
     52c:	01458963          	beq	a1,s4,53e <_puts_r+0xbc>
     530:	401c                	lw	a5,0(s0)
     532:	00178713          	addi	a4,a5,1
     536:	c018                	sw	a4,0(s0)
     538:	00b78023          	sb	a1,0(a5)
     53c:	b769                	j	4c6 <_puts_r+0x44>
     53e:	8622                	mv	a2,s0
     540:	8526                	mv	a0,s1
     542:	2a19                	jal	658 <__swbuf_r>
     544:	f93511e3          	bne	a0,s3,4c6 <_puts_r+0x44>
     548:	b7d1                	j	50c <_puts_r+0x8a>
     54a:	401c                	lw	a5,0(s0)
     54c:	00178713          	addi	a4,a5,1
     550:	c018                	sw	a4,0(s0)
     552:	4729                	li	a4,10
     554:	00e78023          	sb	a4,0(a5)
     558:	b771                	j	4e4 <_puts_r+0x62>

0000055a <puts>:
     55a:	85aa                	mv	a1,a0
     55c:	8681a503          	lw	a0,-1944(gp) # 8344 <_impure_ptr>
     560:	b70d                	j	482 <_puts_r>

00000562 <cleanup_glue>:
     562:	1141                	addi	sp,sp,-16
     564:	c422                	sw	s0,8(sp)
     566:	842e                	mv	s0,a1
     568:	418c                	lw	a1,0(a1)
     56a:	c226                	sw	s1,4(sp)
     56c:	c606                	sw	ra,12(sp)
     56e:	84aa                	mv	s1,a0
     570:	c191                	beqz	a1,574 <cleanup_glue+0x12>
     572:	3fc5                	jal	562 <cleanup_glue>
     574:	85a2                	mv	a1,s0
     576:	4422                	lw	s0,8(sp)
     578:	40b2                	lw	ra,12(sp)
     57a:	8526                	mv	a0,s1
     57c:	4492                	lw	s1,4(sp)
     57e:	0141                	addi	sp,sp,16
     580:	1370006f          	j	eb6 <_free_r>

00000584 <_reclaim_reent>:
     584:	8681a783          	lw	a5,-1944(gp) # 8344 <_impure_ptr>
     588:	0ca78763          	beq	a5,a0,656 <_reclaim_reent+0xd2>
     58c:	515c                	lw	a5,36(a0)
     58e:	1101                	addi	sp,sp,-32
     590:	cc22                	sw	s0,24(sp)
     592:	ce06                	sw	ra,28(sp)
     594:	ca26                	sw	s1,20(sp)
     596:	c84a                	sw	s2,16(sp)
     598:	c64e                	sw	s3,12(sp)
     59a:	842a                	mv	s0,a0
     59c:	cf81                	beqz	a5,5b4 <_reclaim_reent+0x30>
     59e:	47dc                	lw	a5,12(a5)
     5a0:	4481                	li	s1,0
     5a2:	08000913          	li	s2,128
     5a6:	e3d1                	bnez	a5,62a <_reclaim_reent+0xa6>
     5a8:	505c                	lw	a5,36(s0)
     5aa:	438c                	lw	a1,0(a5)
     5ac:	c581                	beqz	a1,5b4 <_reclaim_reent+0x30>
     5ae:	8522                	mv	a0,s0
     5b0:	107000ef          	jal	ra,eb6 <_free_r>
     5b4:	484c                	lw	a1,20(s0)
     5b6:	c581                	beqz	a1,5be <_reclaim_reent+0x3a>
     5b8:	8522                	mv	a0,s0
     5ba:	0fd000ef          	jal	ra,eb6 <_free_r>
     5be:	504c                	lw	a1,36(s0)
     5c0:	c581                	beqz	a1,5c8 <_reclaim_reent+0x44>
     5c2:	8522                	mv	a0,s0
     5c4:	0f3000ef          	jal	ra,eb6 <_free_r>
     5c8:	5c0c                	lw	a1,56(s0)
     5ca:	c581                	beqz	a1,5d2 <_reclaim_reent+0x4e>
     5cc:	8522                	mv	a0,s0
     5ce:	0e9000ef          	jal	ra,eb6 <_free_r>
     5d2:	5c4c                	lw	a1,60(s0)
     5d4:	c581                	beqz	a1,5dc <_reclaim_reent+0x58>
     5d6:	8522                	mv	a0,s0
     5d8:	0df000ef          	jal	ra,eb6 <_free_r>
     5dc:	402c                	lw	a1,64(s0)
     5de:	c581                	beqz	a1,5e6 <_reclaim_reent+0x62>
     5e0:	8522                	mv	a0,s0
     5e2:	0d5000ef          	jal	ra,eb6 <_free_r>
     5e6:	4c6c                	lw	a1,92(s0)
     5e8:	c581                	beqz	a1,5f0 <_reclaim_reent+0x6c>
     5ea:	8522                	mv	a0,s0
     5ec:	0cb000ef          	jal	ra,eb6 <_free_r>
     5f0:	4c2c                	lw	a1,88(s0)
     5f2:	c581                	beqz	a1,5fa <_reclaim_reent+0x76>
     5f4:	8522                	mv	a0,s0
     5f6:	0c1000ef          	jal	ra,eb6 <_free_r>
     5fa:	584c                	lw	a1,52(s0)
     5fc:	c581                	beqz	a1,604 <_reclaim_reent+0x80>
     5fe:	8522                	mv	a0,s0
     600:	0b7000ef          	jal	ra,eb6 <_free_r>
     604:	4c1c                	lw	a5,24(s0)
     606:	c3a9                	beqz	a5,648 <_reclaim_reent+0xc4>
     608:	541c                	lw	a5,40(s0)
     60a:	8522                	mv	a0,s0
     60c:	9782                	jalr	a5
     60e:	442c                	lw	a1,72(s0)
     610:	cd85                	beqz	a1,648 <_reclaim_reent+0xc4>
     612:	8522                	mv	a0,s0
     614:	4462                	lw	s0,24(sp)
     616:	40f2                	lw	ra,28(sp)
     618:	44d2                	lw	s1,20(sp)
     61a:	4942                	lw	s2,16(sp)
     61c:	49b2                	lw	s3,12(sp)
     61e:	6105                	addi	sp,sp,32
     620:	b789                	j	562 <cleanup_glue>
     622:	95a6                	add	a1,a1,s1
     624:	418c                	lw	a1,0(a1)
     626:	e991                	bnez	a1,63a <_reclaim_reent+0xb6>
     628:	0491                	addi	s1,s1,4
     62a:	505c                	lw	a5,36(s0)
     62c:	47cc                	lw	a1,12(a5)
     62e:	ff249ae3          	bne	s1,s2,622 <_reclaim_reent+0x9e>
     632:	8522                	mv	a0,s0
     634:	083000ef          	jal	ra,eb6 <_free_r>
     638:	bf85                	j	5a8 <_reclaim_reent+0x24>
     63a:	0005a983          	lw	s3,0(a1)
     63e:	8522                	mv	a0,s0
     640:	077000ef          	jal	ra,eb6 <_free_r>
     644:	85ce                	mv	a1,s3
     646:	b7c5                	j	626 <_reclaim_reent+0xa2>
     648:	40f2                	lw	ra,28(sp)
     64a:	4462                	lw	s0,24(sp)
     64c:	44d2                	lw	s1,20(sp)
     64e:	4942                	lw	s2,16(sp)
     650:	49b2                	lw	s3,12(sp)
     652:	6105                	addi	sp,sp,32
     654:	8082                	ret
     656:	8082                	ret

00000658 <__swbuf_r>:
     658:	1101                	addi	sp,sp,-32
     65a:	cc22                	sw	s0,24(sp)
     65c:	ca26                	sw	s1,20(sp)
     65e:	c84a                	sw	s2,16(sp)
     660:	ce06                	sw	ra,28(sp)
     662:	c64e                	sw	s3,12(sp)
     664:	84aa                	mv	s1,a0
     666:	892e                	mv	s2,a1
     668:	8432                	mv	s0,a2
     66a:	c501                	beqz	a0,672 <__swbuf_r+0x1a>
     66c:	4d1c                	lw	a5,24(a0)
     66e:	e391                	bnez	a5,672 <__swbuf_r+0x1a>
     670:	239d                	jal	bd6 <__sinit>
     672:	67a1                	lui	a5,0x8
     674:	20878793          	addi	a5,a5,520 # 8208 <__sf_fake_stdin>
     678:	06f41963          	bne	s0,a5,6ea <__swbuf_r+0x92>
     67c:	40c0                	lw	s0,4(s1)
     67e:	4c1c                	lw	a5,24(s0)
     680:	c41c                	sw	a5,8(s0)
     682:	00c45783          	lhu	a5,12(s0)
     686:	8ba1                	andi	a5,a5,8
     688:	cfbd                	beqz	a5,706 <__swbuf_r+0xae>
     68a:	481c                	lw	a5,16(s0)
     68c:	cfad                	beqz	a5,706 <__swbuf_r+0xae>
     68e:	481c                	lw	a5,16(s0)
     690:	4008                	lw	a0,0(s0)
     692:	0ff97993          	zext.b	s3,s2
     696:	0ff97913          	zext.b	s2,s2
     69a:	8d1d                	sub	a0,a0,a5
     69c:	485c                	lw	a5,20(s0)
     69e:	00f54663          	blt	a0,a5,6aa <__swbuf_r+0x52>
     6a2:	85a2                	mv	a1,s0
     6a4:	8526                	mv	a0,s1
     6a6:	2efd                	jal	aa4 <_fflush_r>
     6a8:	e13d                	bnez	a0,70e <__swbuf_r+0xb6>
     6aa:	441c                	lw	a5,8(s0)
     6ac:	0505                	addi	a0,a0,1
     6ae:	17fd                	addi	a5,a5,-1
     6b0:	c41c                	sw	a5,8(s0)
     6b2:	401c                	lw	a5,0(s0)
     6b4:	00178713          	addi	a4,a5,1
     6b8:	c018                	sw	a4,0(s0)
     6ba:	01378023          	sb	s3,0(a5)
     6be:	485c                	lw	a5,20(s0)
     6c0:	00a78963          	beq	a5,a0,6d2 <__swbuf_r+0x7a>
     6c4:	00c45783          	lhu	a5,12(s0)
     6c8:	8b85                	andi	a5,a5,1
     6ca:	cb81                	beqz	a5,6da <__swbuf_r+0x82>
     6cc:	47a9                	li	a5,10
     6ce:	00f91663          	bne	s2,a5,6da <__swbuf_r+0x82>
     6d2:	85a2                	mv	a1,s0
     6d4:	8526                	mv	a0,s1
     6d6:	26f9                	jal	aa4 <_fflush_r>
     6d8:	e91d                	bnez	a0,70e <__swbuf_r+0xb6>
     6da:	40f2                	lw	ra,28(sp)
     6dc:	4462                	lw	s0,24(sp)
     6de:	44d2                	lw	s1,20(sp)
     6e0:	49b2                	lw	s3,12(sp)
     6e2:	854a                	mv	a0,s2
     6e4:	4942                	lw	s2,16(sp)
     6e6:	6105                	addi	sp,sp,32
     6e8:	8082                	ret
     6ea:	67a1                	lui	a5,0x8
     6ec:	22878793          	addi	a5,a5,552 # 8228 <__sf_fake_stdout>
     6f0:	00f41463          	bne	s0,a5,6f8 <__swbuf_r+0xa0>
     6f4:	4480                	lw	s0,8(s1)
     6f6:	b761                	j	67e <__swbuf_r+0x26>
     6f8:	67a1                	lui	a5,0x8
     6fa:	1e878793          	addi	a5,a5,488 # 81e8 <__sf_fake_stderr>
     6fe:	f8f410e3          	bne	s0,a5,67e <__swbuf_r+0x26>
     702:	44c0                	lw	s0,12(s1)
     704:	bfad                	j	67e <__swbuf_r+0x26>
     706:	85a2                	mv	a1,s0
     708:	8526                	mv	a0,s1
     70a:	2809                	jal	71c <__swsetup_r>
     70c:	d149                	beqz	a0,68e <__swbuf_r+0x36>
     70e:	597d                	li	s2,-1
     710:	b7e9                	j	6da <__swbuf_r+0x82>

00000712 <__swbuf>:
     712:	862e                	mv	a2,a1
     714:	85aa                	mv	a1,a0
     716:	8681a503          	lw	a0,-1944(gp) # 8344 <_impure_ptr>
     71a:	bf3d                	j	658 <__swbuf_r>

0000071c <__swsetup_r>:
     71c:	1141                	addi	sp,sp,-16
     71e:	c226                	sw	s1,4(sp)
     720:	8681a483          	lw	s1,-1944(gp) # 8344 <_impure_ptr>
     724:	c422                	sw	s0,8(sp)
     726:	c04a                	sw	s2,0(sp)
     728:	c606                	sw	ra,12(sp)
     72a:	892a                	mv	s2,a0
     72c:	842e                	mv	s0,a1
     72e:	c489                	beqz	s1,738 <__swsetup_r+0x1c>
     730:	4c9c                	lw	a5,24(s1)
     732:	e399                	bnez	a5,738 <__swsetup_r+0x1c>
     734:	8526                	mv	a0,s1
     736:	2145                	jal	bd6 <__sinit>
     738:	67a1                	lui	a5,0x8
     73a:	20878793          	addi	a5,a5,520 # 8208 <__sf_fake_stdin>
     73e:	02f41763          	bne	s0,a5,76c <__swsetup_r+0x50>
     742:	40c0                	lw	s0,4(s1)
     744:	00c41783          	lh	a5,12(s0)
     748:	01079713          	slli	a4,a5,0x10
     74c:	0087f693          	andi	a3,a5,8
     750:	8341                	srli	a4,a4,0x10
     752:	eaa5                	bnez	a3,7c2 <__swsetup_r+0xa6>
     754:	01077693          	andi	a3,a4,16
     758:	ea85                	bnez	a3,788 <__swsetup_r+0x6c>
     75a:	4725                	li	a4,9
     75c:	00e92023          	sw	a4,0(s2)
     760:	0407e793          	ori	a5,a5,64
     764:	00f41623          	sh	a5,12(s0)
     768:	557d                	li	a0,-1
     76a:	a869                	j	804 <__swsetup_r+0xe8>
     76c:	67a1                	lui	a5,0x8
     76e:	22878793          	addi	a5,a5,552 # 8228 <__sf_fake_stdout>
     772:	00f41463          	bne	s0,a5,77a <__swsetup_r+0x5e>
     776:	4480                	lw	s0,8(s1)
     778:	b7f1                	j	744 <__swsetup_r+0x28>
     77a:	67a1                	lui	a5,0x8
     77c:	1e878793          	addi	a5,a5,488 # 81e8 <__sf_fake_stderr>
     780:	fcf412e3          	bne	s0,a5,744 <__swsetup_r+0x28>
     784:	44c0                	lw	s0,12(s1)
     786:	bf7d                	j	744 <__swsetup_r+0x28>
     788:	8b11                	andi	a4,a4,4
     78a:	c715                	beqz	a4,7b6 <__swsetup_r+0x9a>
     78c:	584c                	lw	a1,52(s0)
     78e:	c991                	beqz	a1,7a2 <__swsetup_r+0x86>
     790:	04440793          	addi	a5,s0,68
     794:	00f58563          	beq	a1,a5,79e <__swsetup_r+0x82>
     798:	854a                	mv	a0,s2
     79a:	71c000ef          	jal	ra,eb6 <_free_r>
     79e:	02042a23          	sw	zero,52(s0)
     7a2:	00c45783          	lhu	a5,12(s0)
     7a6:	00042223          	sw	zero,4(s0)
     7aa:	fdb7f793          	andi	a5,a5,-37
     7ae:	00f41623          	sh	a5,12(s0)
     7b2:	481c                	lw	a5,16(s0)
     7b4:	c01c                	sw	a5,0(s0)
     7b6:	00c45783          	lhu	a5,12(s0)
     7ba:	0087e793          	ori	a5,a5,8
     7be:	00f41623          	sh	a5,12(s0)
     7c2:	481c                	lw	a5,16(s0)
     7c4:	ef81                	bnez	a5,7dc <__swsetup_r+0xc0>
     7c6:	00c45783          	lhu	a5,12(s0)
     7ca:	20000713          	li	a4,512
     7ce:	2807f793          	andi	a5,a5,640
     7d2:	00e78563          	beq	a5,a4,7dc <__swsetup_r+0xc0>
     7d6:	85a2                	mv	a1,s0
     7d8:	854a                	mv	a0,s2
     7da:	2589                	jal	e1c <__smakebuf_r>
     7dc:	00c41783          	lh	a5,12(s0)
     7e0:	01079713          	slli	a4,a5,0x10
     7e4:	0017f693          	andi	a3,a5,1
     7e8:	8341                	srli	a4,a4,0x10
     7ea:	c29d                	beqz	a3,810 <__swsetup_r+0xf4>
     7ec:	4854                	lw	a3,20(s0)
     7ee:	00042423          	sw	zero,8(s0)
     7f2:	40d006b3          	neg	a3,a3
     7f6:	cc14                	sw	a3,24(s0)
     7f8:	4814                	lw	a3,16(s0)
     7fa:	4501                	li	a0,0
     7fc:	e681                	bnez	a3,804 <__swsetup_r+0xe8>
     7fe:	08077713          	andi	a4,a4,128
     802:	ff39                	bnez	a4,760 <__swsetup_r+0x44>
     804:	40b2                	lw	ra,12(sp)
     806:	4422                	lw	s0,8(sp)
     808:	4492                	lw	s1,4(sp)
     80a:	4902                	lw	s2,0(sp)
     80c:	0141                	addi	sp,sp,16
     80e:	8082                	ret
     810:	00277693          	andi	a3,a4,2
     814:	4601                	li	a2,0
     816:	e291                	bnez	a3,81a <__swsetup_r+0xfe>
     818:	4850                	lw	a2,20(s0)
     81a:	c410                	sw	a2,8(s0)
     81c:	bff1                	j	7f8 <__swsetup_r+0xdc>

0000081e <__register_exitproc>:
     81e:	8741a783          	lw	a5,-1932(gp) # 8350 <_global_atexit>
     822:	88aa                	mv	a7,a0
     824:	e38d                	bnez	a5,846 <__register_exitproc+0x28>
     826:	88018513          	addi	a0,gp,-1920 # 835c <_global_atexit0>
     82a:	86a1aa23          	sw	a0,-1932(gp) # 8350 <_global_atexit>
     82e:	00000313          	li	t1,0
     832:	88018793          	addi	a5,gp,-1920 # 835c <_global_atexit0>
     836:	00030863          	beqz	t1,846 <__register_exitproc+0x28>
     83a:	00002783          	lw	a5,0(zero) # 0 <__vector_start>
     83e:	08f52423          	sw	a5,136(a0)
     842:	88018793          	addi	a5,gp,-1920 # 835c <_global_atexit0>
     846:	43d8                	lw	a4,4(a5)
     848:	487d                	li	a6,31
     84a:	557d                	li	a0,-1
     84c:	04e84663          	blt	a6,a4,898 <hello_blade.c.206cf826+0x7>
     850:	02088d63          	beqz	a7,88a <__register_exitproc+0x6c>
     854:	0887a803          	lw	a6,136(a5)
     858:	04080063          	beqz	a6,898 <hello_blade.c.206cf826+0x7>
     85c:	00271513          	slli	a0,a4,0x2
     860:	9542                	add	a0,a0,a6
     862:	c110                	sw	a2,0(a0)
     864:	10082303          	lw	t1,256(a6)
     868:	4605                	li	a2,1
     86a:	00e61633          	sll	a2,a2,a4
     86e:	00c36333          	or	t1,t1,a2
     872:	10682023          	sw	t1,256(a6)
     876:	08d52023          	sw	a3,128(a0)
     87a:	4689                	li	a3,2
     87c:	00d89763          	bne	a7,a3,88a <__register_exitproc+0x6c>
     880:	10482683          	lw	a3,260(a6)
     884:	8ed1                	or	a3,a3,a2
     886:	10d82223          	sw	a3,260(a6)
     88a:	00170693          	addi	a3,a4,1
     88e:	070a                	slli	a4,a4,0x2
     890:	c3d4                	sw	a3,4(a5)
     892:	97ba                	add	a5,a5,a4
     894:	c78c                	sw	a1,8(a5)
     896:	4501                	li	a0,0
     898:	8082                	ret

0000089a <__call_exitprocs>:
     89a:	7179                	addi	sp,sp,-48
     89c:	c85a                	sw	s6,16(sp)
     89e:	ca56                	sw	s5,20(sp)
     8a0:	c65e                	sw	s7,12(sp)
     8a2:	c462                	sw	s8,8(sp)
     8a4:	d606                	sw	ra,44(sp)
     8a6:	d422                	sw	s0,40(sp)
     8a8:	d226                	sw	s1,36(sp)
     8aa:	d04a                	sw	s2,32(sp)
     8ac:	ce4e                	sw	s3,28(sp)
     8ae:	cc52                	sw	s4,24(sp)
     8b0:	c266                	sw	s9,4(sp)
     8b2:	8baa                	mv	s7,a0
     8b4:	8aae                	mv	s5,a1
     8b6:	87418b13          	addi	s6,gp,-1932 # 8350 <_global_atexit>
     8ba:	4c05                	li	s8,1
     8bc:	000b2483          	lw	s1,0(s6)
     8c0:	cc81                	beqz	s1,8d8 <__call_exitprocs+0x3e>
     8c2:	40c0                	lw	s0,4(s1)
     8c4:	0884a983          	lw	s3,136(s1)
     8c8:	fff40913          	addi	s2,s0,-1
     8cc:	040a                	slli	s0,s0,0x2
     8ce:	00898a33          	add	s4,s3,s0
     8d2:	9426                	add	s0,s0,s1
     8d4:	00095f63          	bgez	s2,8f2 <__call_exitprocs+0x58>
     8d8:	50b2                	lw	ra,44(sp)
     8da:	5422                	lw	s0,40(sp)
     8dc:	5492                	lw	s1,36(sp)
     8de:	5902                	lw	s2,32(sp)
     8e0:	49f2                	lw	s3,28(sp)
     8e2:	4a62                	lw	s4,24(sp)
     8e4:	4ad2                	lw	s5,20(sp)
     8e6:	4b42                	lw	s6,16(sp)
     8e8:	4bb2                	lw	s7,12(sp)
     8ea:	4c22                	lw	s8,8(sp)
     8ec:	4c92                	lw	s9,4(sp)
     8ee:	6145                	addi	sp,sp,48
     8f0:	8082                	ret
     8f2:	000a8c63          	beqz	s5,90a <__call_exitprocs+0x70>
     8f6:	00099663          	bnez	s3,902 <__call_exitprocs+0x68>
     8fa:	197d                	addi	s2,s2,-1
     8fc:	1a71                	addi	s4,s4,-4
     8fe:	1471                	addi	s0,s0,-4
     900:	bfd1                	j	8d4 <__call_exitprocs+0x3a>
     902:	07ca2783          	lw	a5,124(s4)
     906:	ff579ae3          	bne	a5,s5,8fa <__call_exitprocs+0x60>
     90a:	40d8                	lw	a4,4(s1)
     90c:	405c                	lw	a5,4(s0)
     90e:	177d                	addi	a4,a4,-1
     910:	03271863          	bne	a4,s2,940 <__call_exitprocs+0xa6>
     914:	0124a223          	sw	s2,4(s1)
     918:	d3ed                	beqz	a5,8fa <__call_exitprocs+0x60>
     91a:	0044ac83          	lw	s9,4(s1)
     91e:	00098863          	beqz	s3,92e <__call_exitprocs+0x94>
     922:	1009a683          	lw	a3,256(s3)
     926:	012c1733          	sll	a4,s8,s2
     92a:	8ef9                	and	a3,a3,a4
     92c:	ee89                	bnez	a3,946 <__call_exitprocs+0xac>
     92e:	9782                	jalr	a5
     930:	40d8                	lw	a4,4(s1)
     932:	000b2783          	lw	a5,0(s6)
     936:	f99713e3          	bne	a4,s9,8bc <__call_exitprocs+0x22>
     93a:	fcf480e3          	beq	s1,a5,8fa <__call_exitprocs+0x60>
     93e:	bfbd                	j	8bc <__call_exitprocs+0x22>
     940:	00042223          	sw	zero,4(s0)
     944:	bfd1                	j	918 <__call_exitprocs+0x7e>
     946:	1049a683          	lw	a3,260(s3)
     94a:	ffca2583          	lw	a1,-4(s4)
     94e:	8f75                	and	a4,a4,a3
     950:	e701                	bnez	a4,958 <__call_exitprocs+0xbe>
     952:	855e                	mv	a0,s7
     954:	9782                	jalr	a5
     956:	bfe9                	j	930 <__call_exitprocs+0x96>
     958:	852e                	mv	a0,a1
     95a:	9782                	jalr	a5
     95c:	bfd1                	j	930 <__call_exitprocs+0x96>

0000095e <__sflush_r>:
     95e:	00c5d783          	lhu	a5,12(a1)
     962:	1101                	addi	sp,sp,-32
     964:	cc22                	sw	s0,24(sp)
     966:	ca26                	sw	s1,20(sp)
     968:	ce06                	sw	ra,28(sp)
     96a:	c84a                	sw	s2,16(sp)
     96c:	c64e                	sw	s3,12(sp)
     96e:	0087f713          	andi	a4,a5,8
     972:	84aa                	mv	s1,a0
     974:	842e                	mv	s0,a1
     976:	e375                	bnez	a4,a5a <syscalls.c.1edae934+0xa9>
     978:	41d8                	lw	a4,4(a1)
     97a:	00e04763          	bgtz	a4,988 <init.c.450e7743+0x9>
     97e:	41b8                	lw	a4,64(a1)
     980:	00e04463          	bgtz	a4,988 <init.c.450e7743+0x9>
     984:	4501                	li	a0,0
     986:	a875                	j	a42 <syscalls.c.1edae934+0x91>
     988:	5458                	lw	a4,44(s0)
     98a:	df6d                	beqz	a4,984 <init.c.450e7743+0x5>
     98c:	6685                	lui	a3,0x1
     98e:	0004a903          	lw	s2,0(s1)
     992:	8ff5                	and	a5,a5,a3
     994:	0004a023          	sw	zero,0(s1)
     998:	500c                	lw	a1,32(s0)
     99a:	cfa5                	beqz	a5,a12 <syscalls.c.1edae934+0x61>
     99c:	4868                	lw	a0,84(s0)
     99e:	00c45783          	lhu	a5,12(s0)
     9a2:	8b91                	andi	a5,a5,4
     9a4:	c799                	beqz	a5,9b2 <syscalls.c.1edae934+0x1>
     9a6:	405c                	lw	a5,4(s0)
     9a8:	8d1d                	sub	a0,a0,a5
     9aa:	585c                	lw	a5,52(s0)
     9ac:	c399                	beqz	a5,9b2 <syscalls.c.1edae934+0x1>
     9ae:	403c                	lw	a5,64(s0)
     9b0:	8d1d                	sub	a0,a0,a5
     9b2:	545c                	lw	a5,44(s0)
     9b4:	500c                	lw	a1,32(s0)
     9b6:	862a                	mv	a2,a0
     9b8:	4681                	li	a3,0
     9ba:	8526                	mv	a0,s1
     9bc:	9782                	jalr	a5
     9be:	57fd                	li	a5,-1
     9c0:	00c45703          	lhu	a4,12(s0)
     9c4:	00f51d63          	bne	a0,a5,9de <syscalls.c.1edae934+0x2d>
     9c8:	4094                	lw	a3,0(s1)
     9ca:	47f5                	li	a5,29
     9cc:	08d7e263          	bltu	a5,a3,a50 <syscalls.c.1edae934+0x9f>
     9d0:	dfc007b7          	lui	a5,0xdfc00
     9d4:	17f9                	addi	a5,a5,-2
     9d6:	40d7d7b3          	sra	a5,a5,a3
     9da:	8b85                	andi	a5,a5,1
     9dc:	ebb5                	bnez	a5,a50 <syscalls.c.1edae934+0x9f>
     9de:	481c                	lw	a5,16(s0)
     9e0:	00042223          	sw	zero,4(s0)
     9e4:	c01c                	sw	a5,0(s0)
     9e6:	6785                	lui	a5,0x1
     9e8:	8f7d                	and	a4,a4,a5
     9ea:	c719                	beqz	a4,9f8 <syscalls.c.1edae934+0x47>
     9ec:	57fd                	li	a5,-1
     9ee:	00f51463          	bne	a0,a5,9f6 <syscalls.c.1edae934+0x45>
     9f2:	409c                	lw	a5,0(s1)
     9f4:	e391                	bnez	a5,9f8 <syscalls.c.1edae934+0x47>
     9f6:	c868                	sw	a0,84(s0)
     9f8:	584c                	lw	a1,52(s0)
     9fa:	0124a023          	sw	s2,0(s1)
     9fe:	d1d9                	beqz	a1,984 <init.c.450e7743+0x5>
     a00:	04440793          	addi	a5,s0,68
     a04:	00f58463          	beq	a1,a5,a0c <syscalls.c.1edae934+0x5b>
     a08:	8526                	mv	a0,s1
     a0a:	2175                	jal	eb6 <_free_r>
     a0c:	02042a23          	sw	zero,52(s0)
     a10:	bf95                	j	984 <init.c.450e7743+0x5>
     a12:	4685                	li	a3,1
     a14:	4601                	li	a2,0
     a16:	8526                	mv	a0,s1
     a18:	9702                	jalr	a4
     a1a:	57fd                	li	a5,-1
     a1c:	f8f511e3          	bne	a0,a5,99e <init.c.450e7743+0x1f>
     a20:	409c                	lw	a5,0(s1)
     a22:	dfb5                	beqz	a5,99e <init.c.450e7743+0x1f>
     a24:	4775                	li	a4,29
     a26:	00e78563          	beq	a5,a4,a30 <syscalls.c.1edae934+0x7f>
     a2a:	4759                	li	a4,22
     a2c:	00e79563          	bne	a5,a4,a36 <syscalls.c.1edae934+0x85>
     a30:	0124a023          	sw	s2,0(s1)
     a34:	bf81                	j	984 <init.c.450e7743+0x5>
     a36:	00c45783          	lhu	a5,12(s0)
     a3a:	0407e793          	ori	a5,a5,64
     a3e:	00f41623          	sh	a5,12(s0)
     a42:	40f2                	lw	ra,28(sp)
     a44:	4462                	lw	s0,24(sp)
     a46:	44d2                	lw	s1,20(sp)
     a48:	4942                	lw	s2,16(sp)
     a4a:	49b2                	lw	s3,12(sp)
     a4c:	6105                	addi	sp,sp,32
     a4e:	8082                	ret
     a50:	04076713          	ori	a4,a4,64
     a54:	00e41623          	sh	a4,12(s0)
     a58:	b7ed                	j	a42 <syscalls.c.1edae934+0x91>
     a5a:	0105a983          	lw	s3,16(a1)
     a5e:	f20983e3          	beqz	s3,984 <init.c.450e7743+0x5>
     a62:	0005a903          	lw	s2,0(a1)
     a66:	8b8d                	andi	a5,a5,3
     a68:	0135a023          	sw	s3,0(a1)
     a6c:	41390933          	sub	s2,s2,s3
     a70:	4701                	li	a4,0
     a72:	e391                	bnez	a5,a76 <syscalls.c.1edae934+0xc5>
     a74:	49d8                	lw	a4,20(a1)
     a76:	c418                	sw	a4,8(s0)
     a78:	f12056e3          	blez	s2,984 <init.c.450e7743+0x5>
     a7c:	541c                	lw	a5,40(s0)
     a7e:	500c                	lw	a1,32(s0)
     a80:	86ca                	mv	a3,s2
     a82:	864e                	mv	a2,s3
     a84:	8526                	mv	a0,s1
     a86:	9782                	jalr	a5
     a88:	00a04a63          	bgtz	a0,a9c <syscalls.c.1edae934+0xeb>
     a8c:	00c45783          	lhu	a5,12(s0)
     a90:	557d                	li	a0,-1
     a92:	0407e793          	ori	a5,a5,64
     a96:	00f41623          	sh	a5,12(s0)
     a9a:	b765                	j	a42 <syscalls.c.1edae934+0x91>
     a9c:	99aa                	add	s3,s3,a0
     a9e:	40a90933          	sub	s2,s2,a0
     aa2:	bfd9                	j	a78 <syscalls.c.1edae934+0xc7>

00000aa4 <_fflush_r>:
     aa4:	499c                	lw	a5,16(a1)
     aa6:	cfa1                	beqz	a5,afe <_fflush_r+0x5a>
     aa8:	1101                	addi	sp,sp,-32
     aaa:	cc22                	sw	s0,24(sp)
     aac:	ce06                	sw	ra,28(sp)
     aae:	842a                	mv	s0,a0
     ab0:	c511                	beqz	a0,abc <_fflush_r+0x18>
     ab2:	4d1c                	lw	a5,24(a0)
     ab4:	e781                	bnez	a5,abc <_fflush_r+0x18>
     ab6:	c62e                	sw	a1,12(sp)
     ab8:	2a39                	jal	bd6 <__sinit>
     aba:	45b2                	lw	a1,12(sp)
     abc:	67a1                	lui	a5,0x8
     abe:	20878793          	addi	a5,a5,520 # 8208 <__sf_fake_stdin>
     ac2:	00f59b63          	bne	a1,a5,ad8 <_fflush_r+0x34>
     ac6:	404c                	lw	a1,4(s0)
     ac8:	00c59783          	lh	a5,12(a1)
     acc:	c785                	beqz	a5,af4 <_fflush_r+0x50>
     ace:	8522                	mv	a0,s0
     ad0:	4462                	lw	s0,24(sp)
     ad2:	40f2                	lw	ra,28(sp)
     ad4:	6105                	addi	sp,sp,32
     ad6:	b561                	j	95e <__sflush_r>
     ad8:	67a1                	lui	a5,0x8
     ada:	22878793          	addi	a5,a5,552 # 8228 <__sf_fake_stdout>
     ade:	00f59463          	bne	a1,a5,ae6 <_fflush_r+0x42>
     ae2:	440c                	lw	a1,8(s0)
     ae4:	b7d5                	j	ac8 <_fflush_r+0x24>
     ae6:	67a1                	lui	a5,0x8
     ae8:	1e878793          	addi	a5,a5,488 # 81e8 <__sf_fake_stderr>
     aec:	fcf59ee3          	bne	a1,a5,ac8 <_fflush_r+0x24>
     af0:	444c                	lw	a1,12(s0)
     af2:	bfd9                	j	ac8 <_fflush_r+0x24>
     af4:	40f2                	lw	ra,28(sp)
     af6:	4462                	lw	s0,24(sp)
     af8:	4501                	li	a0,0
     afa:	6105                	addi	sp,sp,32
     afc:	8082                	ret
     afe:	4501                	li	a0,0
     b00:	8082                	ret

00000b02 <fflush>:
     b02:	85aa                	mv	a1,a0
     b04:	e519                	bnez	a0,b12 <fflush+0x10>
     b06:	8601a503          	lw	a0,-1952(gp) # 833c <_global_impure_ptr>
     b0a:	6585                	lui	a1,0x1
     b0c:	aa458593          	addi	a1,a1,-1372 # aa4 <_fflush_r>
     b10:	a499                	j	d56 <_fwalk_reent>
     b12:	8681a503          	lw	a0,-1944(gp) # 8344 <_impure_ptr>
     b16:	b779                	j	aa4 <_fflush_r>

00000b18 <__fp_lock>:
     b18:	4501                	li	a0,0
     b1a:	8082                	ret

00000b1c <std>:
     b1c:	1141                	addi	sp,sp,-16
     b1e:	c422                	sw	s0,8(sp)
     b20:	c606                	sw	ra,12(sp)
     b22:	842a                	mv	s0,a0
     b24:	00b51623          	sh	a1,12(a0)
     b28:	00c51723          	sh	a2,14(a0)
     b2c:	00052023          	sw	zero,0(a0)
     b30:	00052223          	sw	zero,4(a0)
     b34:	00052423          	sw	zero,8(a0)
     b38:	06052223          	sw	zero,100(a0)
     b3c:	00052823          	sw	zero,16(a0)
     b40:	00052a23          	sw	zero,20(a0)
     b44:	00052c23          	sw	zero,24(a0)
     b48:	4621                	li	a2,8
     b4a:	4581                	li	a1,0
     b4c:	05c50513          	addi	a0,a0,92
     b50:	923ff0ef          	jal	ra,472 <memset>
     b54:	6785                	lui	a5,0x1
     b56:	05478793          	addi	a5,a5,84 # 1054 <__sread>
     b5a:	d05c                	sw	a5,36(s0)
     b5c:	6785                	lui	a5,0x1
     b5e:	08878793          	addi	a5,a5,136 # 1088 <__swrite>
     b62:	d41c                	sw	a5,40(s0)
     b64:	6785                	lui	a5,0x1
     b66:	0d678793          	addi	a5,a5,214 # 10d6 <__sseek>
     b6a:	d45c                	sw	a5,44(s0)
     b6c:	6785                	lui	a5,0x1
     b6e:	10c78793          	addi	a5,a5,268 # 110c <__sclose>
     b72:	40b2                	lw	ra,12(sp)
     b74:	d000                	sw	s0,32(s0)
     b76:	d81c                	sw	a5,48(s0)
     b78:	4422                	lw	s0,8(sp)
     b7a:	0141                	addi	sp,sp,16
     b7c:	8082                	ret

00000b7e <_cleanup_r>:
     b7e:	6585                	lui	a1,0x1
     b80:	aa458593          	addi	a1,a1,-1372 # aa4 <_fflush_r>
     b84:	aac9                	j	d56 <_fwalk_reent>

00000b86 <__fp_unlock>:
     b86:	4501                	li	a0,0
     b88:	8082                	ret

00000b8a <__sfmoreglue>:
     b8a:	1141                	addi	sp,sp,-16
     b8c:	c226                	sw	s1,4(sp)
     b8e:	06800793          	li	a5,104
     b92:	fff58493          	addi	s1,a1,-1
     b96:	02f484b3          	mul	s1,s1,a5
     b9a:	c04a                	sw	s2,0(sp)
     b9c:	892e                	mv	s2,a1
     b9e:	c422                	sw	s0,8(sp)
     ba0:	c606                	sw	ra,12(sp)
     ba2:	07448593          	addi	a1,s1,116
     ba6:	267d                	jal	f54 <_malloc_r>
     ba8:	842a                	mv	s0,a0
     baa:	cd01                	beqz	a0,bc2 <__sfmoreglue+0x38>
     bac:	00052023          	sw	zero,0(a0)
     bb0:	01252223          	sw	s2,4(a0)
     bb4:	0531                	addi	a0,a0,12
     bb6:	c408                	sw	a0,8(s0)
     bb8:	06848613          	addi	a2,s1,104
     bbc:	4581                	li	a1,0
     bbe:	8b5ff0ef          	jal	ra,472 <memset>
     bc2:	40b2                	lw	ra,12(sp)
     bc4:	8522                	mv	a0,s0
     bc6:	4422                	lw	s0,8(sp)
     bc8:	4492                	lw	s1,4(sp)
     bca:	4902                	lw	s2,0(sp)
     bcc:	0141                	addi	sp,sp,16
     bce:	8082                	ret

00000bd0 <_cleanup>:
     bd0:	8601a503          	lw	a0,-1952(gp) # 833c <_global_impure_ptr>
     bd4:	b76d                	j	b7e <_cleanup_r>

00000bd6 <__sinit>:
     bd6:	4d1c                	lw	a5,24(a0)
     bd8:	e3a5                	bnez	a5,c38 <__sinit+0x62>
     bda:	1141                	addi	sp,sp,-16
     bdc:	6785                	lui	a5,0x1
     bde:	c422                	sw	s0,8(sp)
     be0:	c606                	sw	ra,12(sp)
     be2:	b7e78793          	addi	a5,a5,-1154 # b7e <_cleanup_r>
     be6:	d51c                	sw	a5,40(a0)
     be8:	8601a783          	lw	a5,-1952(gp) # 833c <_global_impure_ptr>
     bec:	04052423          	sw	zero,72(a0)
     bf0:	04052623          	sw	zero,76(a0)
     bf4:	04052823          	sw	zero,80(a0)
     bf8:	842a                	mv	s0,a0
     bfa:	00f51463          	bne	a0,a5,c02 <__sinit+0x2c>
     bfe:	4785                	li	a5,1
     c00:	cd1c                	sw	a5,24(a0)
     c02:	8522                	mv	a0,s0
     c04:	281d                	jal	c3a <__sfp>
     c06:	c048                	sw	a0,4(s0)
     c08:	8522                	mv	a0,s0
     c0a:	2805                	jal	c3a <__sfp>
     c0c:	c408                	sw	a0,8(s0)
     c0e:	8522                	mv	a0,s0
     c10:	202d                	jal	c3a <__sfp>
     c12:	c448                	sw	a0,12(s0)
     c14:	4048                	lw	a0,4(s0)
     c16:	4601                	li	a2,0
     c18:	4591                	li	a1,4
     c1a:	3709                	jal	b1c <std>
     c1c:	4408                	lw	a0,8(s0)
     c1e:	4605                	li	a2,1
     c20:	45a5                	li	a1,9
     c22:	3ded                	jal	b1c <std>
     c24:	4448                	lw	a0,12(s0)
     c26:	4609                	li	a2,2
     c28:	45c9                	li	a1,18
     c2a:	3dcd                	jal	b1c <std>
     c2c:	4785                	li	a5,1
     c2e:	40b2                	lw	ra,12(sp)
     c30:	cc1c                	sw	a5,24(s0)
     c32:	4422                	lw	s0,8(sp)
     c34:	0141                	addi	sp,sp,16
     c36:	8082                	ret
     c38:	8082                	ret

00000c3a <__sfp>:
     c3a:	1141                	addi	sp,sp,-16
     c3c:	c226                	sw	s1,4(sp)
     c3e:	8601a483          	lw	s1,-1952(gp) # 833c <_global_impure_ptr>
     c42:	c04a                	sw	s2,0(sp)
     c44:	c606                	sw	ra,12(sp)
     c46:	4c9c                	lw	a5,24(s1)
     c48:	c422                	sw	s0,8(sp)
     c4a:	892a                	mv	s2,a0
     c4c:	e399                	bnez	a5,c52 <__sfp+0x18>
     c4e:	8526                	mv	a0,s1
     c50:	3759                	jal	bd6 <__sinit>
     c52:	04848493          	addi	s1,s1,72
     c56:	4480                	lw	s0,8(s1)
     c58:	40dc                	lw	a5,4(s1)
     c5a:	17fd                	addi	a5,a5,-1
     c5c:	0007d663          	bgez	a5,c68 <__sfp+0x2e>
     c60:	409c                	lw	a5,0(s1)
     c62:	cfb9                	beqz	a5,cc0 <__sfp+0x86>
     c64:	4084                	lw	s1,0(s1)
     c66:	bfc5                	j	c56 <__sfp+0x1c>
     c68:	00c41703          	lh	a4,12(s0)
     c6c:	e739                	bnez	a4,cba <__sfp+0x80>
     c6e:	77c1                	lui	a5,0xffff0
     c70:	0785                	addi	a5,a5,1
     c72:	06042223          	sw	zero,100(s0)
     c76:	00042023          	sw	zero,0(s0)
     c7a:	00042223          	sw	zero,4(s0)
     c7e:	00042423          	sw	zero,8(s0)
     c82:	c45c                	sw	a5,12(s0)
     c84:	00042823          	sw	zero,16(s0)
     c88:	00042a23          	sw	zero,20(s0)
     c8c:	00042c23          	sw	zero,24(s0)
     c90:	4621                	li	a2,8
     c92:	4581                	li	a1,0
     c94:	05c40513          	addi	a0,s0,92
     c98:	fdaff0ef          	jal	ra,472 <memset>
     c9c:	02042a23          	sw	zero,52(s0)
     ca0:	02042c23          	sw	zero,56(s0)
     ca4:	04042423          	sw	zero,72(s0)
     ca8:	04042623          	sw	zero,76(s0)
     cac:	40b2                	lw	ra,12(sp)
     cae:	8522                	mv	a0,s0
     cb0:	4422                	lw	s0,8(sp)
     cb2:	4492                	lw	s1,4(sp)
     cb4:	4902                	lw	s2,0(sp)
     cb6:	0141                	addi	sp,sp,16
     cb8:	8082                	ret
     cba:	06840413          	addi	s0,s0,104
     cbe:	bf71                	j	c5a <__sfp+0x20>
     cc0:	4591                	li	a1,4
     cc2:	854a                	mv	a0,s2
     cc4:	35d9                	jal	b8a <__sfmoreglue>
     cc6:	c088                	sw	a0,0(s1)
     cc8:	842a                	mv	s0,a0
     cca:	fd49                	bnez	a0,c64 <__sfp+0x2a>
     ccc:	47b1                	li	a5,12
     cce:	00f92023          	sw	a5,0(s2)
     cd2:	bfe9                	j	cac <__sfp+0x72>

00000cd4 <__sfp_lock_acquire>:
     cd4:	8082                	ret

00000cd6 <__sfp_lock_release>:
     cd6:	8082                	ret

00000cd8 <__sinit_lock_acquire>:
     cd8:	8082                	ret

00000cda <__sinit_lock_release>:
     cda:	8082                	ret

00000cdc <__fp_lock_all>:
     cdc:	8681a503          	lw	a0,-1944(gp) # 8344 <_impure_ptr>
     ce0:	6585                	lui	a1,0x1
     ce2:	b1858593          	addi	a1,a1,-1256 # b18 <__fp_lock>
     ce6:	a039                	j	cf4 <_fwalk>

00000ce8 <__fp_unlock_all>:
     ce8:	8681a503          	lw	a0,-1944(gp) # 8344 <_impure_ptr>
     cec:	6585                	lui	a1,0x1
     cee:	b8658593          	addi	a1,a1,-1146 # b86 <__fp_unlock>
     cf2:	a009                	j	cf4 <_fwalk>

00000cf4 <_fwalk>:
     cf4:	1101                	addi	sp,sp,-32
     cf6:	cc22                	sw	s0,24(sp)
     cf8:	c84a                	sw	s2,16(sp)
     cfa:	c64e                	sw	s3,12(sp)
     cfc:	c256                	sw	s5,4(sp)
     cfe:	c05a                	sw	s6,0(sp)
     d00:	ce06                	sw	ra,28(sp)
     d02:	ca26                	sw	s1,20(sp)
     d04:	c452                	sw	s4,8(sp)
     d06:	89ae                	mv	s3,a1
     d08:	04850413          	addi	s0,a0,72
     d0c:	4901                	li	s2,0
     d0e:	4a85                	li	s5,1
     d10:	5b7d                	li	s6,-1
     d12:	4404                	lw	s1,8(s0)
     d14:	00442a03          	lw	s4,4(s0)
     d18:	1a7d                	addi	s4,s4,-1
     d1a:	000a5f63          	bgez	s4,d38 <_fwalk+0x44>
     d1e:	4000                	lw	s0,0(s0)
     d20:	f86d                	bnez	s0,d12 <_fwalk+0x1e>
     d22:	40f2                	lw	ra,28(sp)
     d24:	4462                	lw	s0,24(sp)
     d26:	44d2                	lw	s1,20(sp)
     d28:	49b2                	lw	s3,12(sp)
     d2a:	4a22                	lw	s4,8(sp)
     d2c:	4a92                	lw	s5,4(sp)
     d2e:	4b02                	lw	s6,0(sp)
     d30:	854a                	mv	a0,s2
     d32:	4942                	lw	s2,16(sp)
     d34:	6105                	addi	sp,sp,32
     d36:	8082                	ret
     d38:	00c4d783          	lhu	a5,12(s1)
     d3c:	00fafa63          	bgeu	s5,a5,d50 <_fwalk+0x5c>
     d40:	00e49783          	lh	a5,14(s1)
     d44:	01678663          	beq	a5,s6,d50 <_fwalk+0x5c>
     d48:	8526                	mv	a0,s1
     d4a:	9982                	jalr	s3
     d4c:	00a96933          	or	s2,s2,a0
     d50:	06848493          	addi	s1,s1,104
     d54:	b7d1                	j	d18 <_fwalk+0x24>

00000d56 <_fwalk_reent>:
     d56:	7179                	addi	sp,sp,-48
     d58:	d422                	sw	s0,40(sp)
     d5a:	d04a                	sw	s2,32(sp)
     d5c:	ce4e                	sw	s3,28(sp)
     d5e:	cc52                	sw	s4,24(sp)
     d60:	c85a                	sw	s6,16(sp)
     d62:	c65e                	sw	s7,12(sp)
     d64:	d606                	sw	ra,44(sp)
     d66:	d226                	sw	s1,36(sp)
     d68:	ca56                	sw	s5,20(sp)
     d6a:	892a                	mv	s2,a0
     d6c:	8a2e                	mv	s4,a1
     d6e:	04850413          	addi	s0,a0,72
     d72:	4981                	li	s3,0
     d74:	4b05                	li	s6,1
     d76:	5bfd                	li	s7,-1
     d78:	4404                	lw	s1,8(s0)
     d7a:	00442a83          	lw	s5,4(s0)
     d7e:	1afd                	addi	s5,s5,-1
     d80:	020ad063          	bgez	s5,da0 <_fwalk_reent+0x4a>
     d84:	4000                	lw	s0,0(s0)
     d86:	f86d                	bnez	s0,d78 <_fwalk_reent+0x22>
     d88:	50b2                	lw	ra,44(sp)
     d8a:	5422                	lw	s0,40(sp)
     d8c:	5492                	lw	s1,36(sp)
     d8e:	5902                	lw	s2,32(sp)
     d90:	4a62                	lw	s4,24(sp)
     d92:	4ad2                	lw	s5,20(sp)
     d94:	4b42                	lw	s6,16(sp)
     d96:	4bb2                	lw	s7,12(sp)
     d98:	854e                	mv	a0,s3
     d9a:	49f2                	lw	s3,28(sp)
     d9c:	6145                	addi	sp,sp,48
     d9e:	8082                	ret
     da0:	00c4d783          	lhu	a5,12(s1)
     da4:	00fb7b63          	bgeu	s6,a5,dba <_fwalk_reent+0x64>
     da8:	00e49783          	lh	a5,14(s1)
     dac:	01778763          	beq	a5,s7,dba <_fwalk_reent+0x64>
     db0:	85a6                	mv	a1,s1
     db2:	854a                	mv	a0,s2
     db4:	9a02                	jalr	s4
     db6:	00a9e9b3          	or	s3,s3,a0
     dba:	06848493          	addi	s1,s1,104
     dbe:	b7c1                	j	d7e <_fwalk_reent+0x28>

00000dc0 <__swhatbuf_r>:
     dc0:	7159                	addi	sp,sp,-112
     dc2:	d4a2                	sw	s0,104(sp)
     dc4:	842e                	mv	s0,a1
     dc6:	00e59583          	lh	a1,14(a1)
     dca:	d2a6                	sw	s1,100(sp)
     dcc:	d0ca                	sw	s2,96(sp)
     dce:	d686                	sw	ra,108(sp)
     dd0:	84b2                	mv	s1,a2
     dd2:	8936                	mv	s2,a3
     dd4:	0205d463          	bgez	a1,dfc <__swhatbuf_r+0x3c>
     dd8:	00c45783          	lhu	a5,12(s0)
     ddc:	0807f793          	andi	a5,a5,128
     de0:	cf85                	beqz	a5,e18 <__swhatbuf_r+0x58>
     de2:	4781                	li	a5,0
     de4:	04000713          	li	a4,64
     de8:	50b6                	lw	ra,108(sp)
     dea:	5426                	lw	s0,104(sp)
     dec:	00f92023          	sw	a5,0(s2)
     df0:	c098                	sw	a4,0(s1)
     df2:	5906                	lw	s2,96(sp)
     df4:	5496                	lw	s1,100(sp)
     df6:	4501                	li	a0,0
     df8:	6165                	addi	sp,sp,112
     dfa:	8082                	ret
     dfc:	0030                	addi	a2,sp,8
     dfe:	2e85                	jal	116e <_fstat_r>
     e00:	fc054ce3          	bltz	a0,dd8 <__swhatbuf_r+0x18>
     e04:	4732                	lw	a4,12(sp)
     e06:	67bd                	lui	a5,0xf
     e08:	8ff9                	and	a5,a5,a4
     e0a:	7779                	lui	a4,0xffffe
     e0c:	97ba                	add	a5,a5,a4
     e0e:	0017b793          	seqz	a5,a5
     e12:	40000713          	li	a4,1024
     e16:	bfc9                	j	de8 <__swhatbuf_r+0x28>
     e18:	4781                	li	a5,0
     e1a:	bfe5                	j	e12 <__swhatbuf_r+0x52>

00000e1c <__smakebuf_r>:
     e1c:	00c5d783          	lhu	a5,12(a1)
     e20:	1101                	addi	sp,sp,-32
     e22:	cc22                	sw	s0,24(sp)
     e24:	ce06                	sw	ra,28(sp)
     e26:	ca26                	sw	s1,20(sp)
     e28:	c84a                	sw	s2,16(sp)
     e2a:	8b89                	andi	a5,a5,2
     e2c:	842e                	mv	s0,a1
     e2e:	cf89                	beqz	a5,e48 <__smakebuf_r+0x2c>
     e30:	04740793          	addi	a5,s0,71
     e34:	c01c                	sw	a5,0(s0)
     e36:	c81c                	sw	a5,16(s0)
     e38:	4785                	li	a5,1
     e3a:	c85c                	sw	a5,20(s0)
     e3c:	40f2                	lw	ra,28(sp)
     e3e:	4462                	lw	s0,24(sp)
     e40:	44d2                	lw	s1,20(sp)
     e42:	4942                	lw	s2,16(sp)
     e44:	6105                	addi	sp,sp,32
     e46:	8082                	ret
     e48:	0074                	addi	a3,sp,12
     e4a:	0030                	addi	a2,sp,8
     e4c:	84aa                	mv	s1,a0
     e4e:	3f8d                	jal	dc0 <__swhatbuf_r>
     e50:	45a2                	lw	a1,8(sp)
     e52:	892a                	mv	s2,a0
     e54:	8526                	mv	a0,s1
     e56:	28fd                	jal	f54 <_malloc_r>
     e58:	ed01                	bnez	a0,e70 <__smakebuf_r+0x54>
     e5a:	00c41783          	lh	a5,12(s0)
     e5e:	2007f713          	andi	a4,a5,512
     e62:	ff69                	bnez	a4,e3c <__smakebuf_r+0x20>
     e64:	9bf1                	andi	a5,a5,-4
     e66:	0027e793          	ori	a5,a5,2
     e6a:	00f41623          	sh	a5,12(s0)
     e6e:	b7c9                	j	e30 <__smakebuf_r+0x14>
     e70:	6785                	lui	a5,0x1
     e72:	b7e78793          	addi	a5,a5,-1154 # b7e <_cleanup_r>
     e76:	d49c                	sw	a5,40(s1)
     e78:	00c45783          	lhu	a5,12(s0)
     e7c:	c008                	sw	a0,0(s0)
     e7e:	c808                	sw	a0,16(s0)
     e80:	0807e793          	ori	a5,a5,128
     e84:	00f41623          	sh	a5,12(s0)
     e88:	47a2                	lw	a5,8(sp)
     e8a:	c85c                	sw	a5,20(s0)
     e8c:	47b2                	lw	a5,12(sp)
     e8e:	cf89                	beqz	a5,ea8 <__smakebuf_r+0x8c>
     e90:	00e41583          	lh	a1,14(s0)
     e94:	8526                	mv	a0,s1
     e96:	2619                	jal	119c <_isatty_r>
     e98:	c901                	beqz	a0,ea8 <__smakebuf_r+0x8c>
     e9a:	00c45783          	lhu	a5,12(s0)
     e9e:	9bf1                	andi	a5,a5,-4
     ea0:	0017e793          	ori	a5,a5,1
     ea4:	00f41623          	sh	a5,12(s0)
     ea8:	00c45783          	lhu	a5,12(s0)
     eac:	0127e533          	or	a0,a5,s2
     eb0:	00a41623          	sh	a0,12(s0)
     eb4:	b761                	j	e3c <__smakebuf_r+0x20>

00000eb6 <_free_r>:
     eb6:	cdd1                	beqz	a1,f52 <_free_r+0x9c>
     eb8:	ffc5a783          	lw	a5,-4(a1)
     ebc:	1101                	addi	sp,sp,-32
     ebe:	cc22                	sw	s0,24(sp)
     ec0:	ce06                	sw	ra,28(sp)
     ec2:	ffc58413          	addi	s0,a1,-4
     ec6:	0007d363          	bgez	a5,ecc <_free_r+0x16>
     eca:	943e                	add	s0,s0,a5
     ecc:	c62a                	sw	a0,12(sp)
     ece:	262d                	jal	11f8 <__malloc_lock>
     ed0:	8781a783          	lw	a5,-1928(gp) # 8354 <__malloc_free_list>
     ed4:	4532                	lw	a0,12(sp)
     ed6:	eb89                	bnez	a5,ee8 <_free_r+0x32>
     ed8:	00042223          	sw	zero,4(s0)
     edc:	8681ac23          	sw	s0,-1928(gp) # 8354 <__malloc_free_list>
     ee0:	4462                	lw	s0,24(sp)
     ee2:	40f2                	lw	ra,28(sp)
     ee4:	6105                	addi	sp,sp,32
     ee6:	ae11                	j	11fa <__malloc_unlock>
     ee8:	00f47d63          	bgeu	s0,a5,f02 <_free_r+0x4c>
     eec:	4010                	lw	a2,0(s0)
     eee:	00c406b3          	add	a3,s0,a2
     ef2:	00d79663          	bne	a5,a3,efe <_free_r+0x48>
     ef6:	4394                	lw	a3,0(a5)
     ef8:	43dc                	lw	a5,4(a5)
     efa:	96b2                	add	a3,a3,a2
     efc:	c014                	sw	a3,0(s0)
     efe:	c05c                	sw	a5,4(s0)
     f00:	bff1                	j	edc <_free_r+0x26>
     f02:	873e                	mv	a4,a5
     f04:	43dc                	lw	a5,4(a5)
     f06:	c399                	beqz	a5,f0c <_free_r+0x56>
     f08:	fef47de3          	bgeu	s0,a5,f02 <_free_r+0x4c>
     f0c:	4314                	lw	a3,0(a4)
     f0e:	00d70633          	add	a2,a4,a3
     f12:	00861f63          	bne	a2,s0,f30 <_free_r+0x7a>
     f16:	4010                	lw	a2,0(s0)
     f18:	96b2                	add	a3,a3,a2
     f1a:	c314                	sw	a3,0(a4)
     f1c:	00d70633          	add	a2,a4,a3
     f20:	fcc790e3          	bne	a5,a2,ee0 <_free_r+0x2a>
     f24:	4390                	lw	a2,0(a5)
     f26:	43dc                	lw	a5,4(a5)
     f28:	96b2                	add	a3,a3,a2
     f2a:	c314                	sw	a3,0(a4)
     f2c:	c35c                	sw	a5,4(a4)
     f2e:	bf4d                	j	ee0 <_free_r+0x2a>
     f30:	00c47563          	bgeu	s0,a2,f3a <_free_r+0x84>
     f34:	47b1                	li	a5,12
     f36:	c11c                	sw	a5,0(a0)
     f38:	b765                	j	ee0 <_free_r+0x2a>
     f3a:	4010                	lw	a2,0(s0)
     f3c:	00c406b3          	add	a3,s0,a2
     f40:	00d79663          	bne	a5,a3,f4c <_free_r+0x96>
     f44:	4394                	lw	a3,0(a5)
     f46:	43dc                	lw	a5,4(a5)
     f48:	96b2                	add	a3,a3,a2
     f4a:	c014                	sw	a3,0(s0)
     f4c:	c05c                	sw	a5,4(s0)
     f4e:	c340                	sw	s0,4(a4)
     f50:	bf41                	j	ee0 <_free_r+0x2a>
     f52:	8082                	ret

00000f54 <_malloc_r>:
     f54:	1101                	addi	sp,sp,-32
     f56:	ca26                	sw	s1,20(sp)
     f58:	00358493          	addi	s1,a1,3
     f5c:	98f1                	andi	s1,s1,-4
     f5e:	c84a                	sw	s2,16(sp)
     f60:	ce06                	sw	ra,28(sp)
     f62:	cc22                	sw	s0,24(sp)
     f64:	c64e                	sw	s3,12(sp)
     f66:	04a1                	addi	s1,s1,8
     f68:	47b1                	li	a5,12
     f6a:	892a                	mv	s2,a0
     f6c:	04f4f263          	bgeu	s1,a5,fb0 <_malloc_r+0x5c>
     f70:	44b1                	li	s1,12
     f72:	04b4e163          	bltu	s1,a1,fb4 <_malloc_r+0x60>
     f76:	854a                	mv	a0,s2
     f78:	2441                	jal	11f8 <__malloc_lock>
     f7a:	87818713          	addi	a4,gp,-1928 # 8354 <__malloc_free_list>
     f7e:	4318                	lw	a4,0(a4)
     f80:	87818693          	addi	a3,gp,-1928 # 8354 <__malloc_free_list>
     f84:	843a                	mv	s0,a4
     f86:	e031                	bnez	s0,fca <_malloc_r+0x76>
     f88:	87c18413          	addi	s0,gp,-1924 # 8358 <__malloc_sbrk_start>
     f8c:	401c                	lw	a5,0(s0)
     f8e:	e789                	bnez	a5,f98 <_malloc_r+0x44>
     f90:	4581                	li	a1,0
     f92:	854a                	mv	a0,s2
     f94:	2851                	jal	1028 <_sbrk_r>
     f96:	c008                	sw	a0,0(s0)
     f98:	85a6                	mv	a1,s1
     f9a:	854a                	mv	a0,s2
     f9c:	2071                	jal	1028 <_sbrk_r>
     f9e:	59fd                	li	s3,-1
     fa0:	07351863          	bne	a0,s3,1010 <__heap_size+0x10>
     fa4:	47b1                	li	a5,12
     fa6:	00f92023          	sw	a5,0(s2)
     faa:	854a                	mv	a0,s2
     fac:	24b9                	jal	11fa <__malloc_unlock>
     fae:	a031                	j	fba <_malloc_r+0x66>
     fb0:	fc04d1e3          	bgez	s1,f72 <_malloc_r+0x1e>
     fb4:	47b1                	li	a5,12
     fb6:	00f92023          	sw	a5,0(s2)
     fba:	4501                	li	a0,0
     fbc:	40f2                	lw	ra,28(sp)
     fbe:	4462                	lw	s0,24(sp)
     fc0:	44d2                	lw	s1,20(sp)
     fc2:	4942                	lw	s2,16(sp)
     fc4:	49b2                	lw	s3,12(sp)
     fc6:	6105                	addi	sp,sp,32
     fc8:	8082                	ret
     fca:	401c                	lw	a5,0(s0)
     fcc:	8f85                	sub	a5,a5,s1
     fce:	0207ce63          	bltz	a5,100a <__heap_size+0xa>
     fd2:	462d                	li	a2,11
     fd4:	00f67663          	bgeu	a2,a5,fe0 <_malloc_r+0x8c>
     fd8:	c01c                	sw	a5,0(s0)
     fda:	943e                	add	s0,s0,a5
     fdc:	c004                	sw	s1,0(s0)
     fde:	a029                	j	fe8 <_malloc_r+0x94>
     fe0:	405c                	lw	a5,4(s0)
     fe2:	02871263          	bne	a4,s0,1006 <__heap_size+0x6>
     fe6:	c29c                	sw	a5,0(a3)
     fe8:	854a                	mv	a0,s2
     fea:	2c01                	jal	11fa <__malloc_unlock>
     fec:	00b40513          	addi	a0,s0,11
     ff0:	00440793          	addi	a5,s0,4
     ff4:	9961                	andi	a0,a0,-8
     ff6:	40f50733          	sub	a4,a0,a5
     ffa:	fcf501e3          	beq	a0,a5,fbc <_malloc_r+0x68>
     ffe:	943a                	add	s0,s0,a4
    1000:	8f89                	sub	a5,a5,a0
    1002:	c01c                	sw	a5,0(s0)
    1004:	bf65                	j	fbc <_malloc_r+0x68>
    1006:	c35c                	sw	a5,4(a4)
    1008:	b7c5                	j	fe8 <_malloc_r+0x94>
    100a:	8722                	mv	a4,s0
    100c:	4040                	lw	s0,4(s0)
    100e:	bfa5                	j	f86 <_malloc_r+0x32>
    1010:	00350413          	addi	s0,a0,3
    1014:	9871                	andi	s0,s0,-4
    1016:	fc8503e3          	beq	a0,s0,fdc <_malloc_r+0x88>
    101a:	40a405b3          	sub	a1,s0,a0
    101e:	854a                	mv	a0,s2
    1020:	2021                	jal	1028 <_sbrk_r>
    1022:	fb351de3          	bne	a0,s3,fdc <_malloc_r+0x88>
    1026:	bfbd                	j	fa4 <_malloc_r+0x50>

00001028 <_sbrk_r>:
    1028:	1141                	addi	sp,sp,-16
    102a:	c422                	sw	s0,8(sp)
    102c:	c226                	sw	s1,4(sp)
    102e:	842a                	mv	s0,a0
    1030:	852e                	mv	a0,a1
    1032:	c606                	sw	ra,12(sp)
    1034:	8601a823          	sw	zero,-1936(gp) # 834c <errno>
    1038:	aeeff0ef          	jal	ra,326 <_sbrk>
    103c:	57fd                	li	a5,-1
    103e:	00f51663          	bne	a0,a5,104a <_sbrk_r+0x22>
    1042:	8701a783          	lw	a5,-1936(gp) # 834c <errno>
    1046:	c391                	beqz	a5,104a <_sbrk_r+0x22>
    1048:	c01c                	sw	a5,0(s0)
    104a:	40b2                	lw	ra,12(sp)
    104c:	4422                	lw	s0,8(sp)
    104e:	4492                	lw	s1,4(sp)
    1050:	0141                	addi	sp,sp,16
    1052:	8082                	ret

00001054 <__sread>:
    1054:	1141                	addi	sp,sp,-16
    1056:	c422                	sw	s0,8(sp)
    1058:	842e                	mv	s0,a1
    105a:	00e59583          	lh	a1,14(a1)
    105e:	c606                	sw	ra,12(sp)
    1060:	2a71                	jal	11fc <_read_r>
    1062:	00054963          	bltz	a0,1074 <__sread+0x20>
    1066:	487c                	lw	a5,84(s0)
    1068:	97aa                	add	a5,a5,a0
    106a:	c87c                	sw	a5,84(s0)
    106c:	40b2                	lw	ra,12(sp)
    106e:	4422                	lw	s0,8(sp)
    1070:	0141                	addi	sp,sp,16
    1072:	8082                	ret
    1074:	00c45783          	lhu	a5,12(s0)
    1078:	777d                	lui	a4,0xfffff
    107a:	177d                	addi	a4,a4,-1
    107c:	8ff9                	and	a5,a5,a4
    107e:	00f41623          	sh	a5,12(s0)
    1082:	b7ed                	j	106c <__sread+0x18>

00001084 <__seofread>:
    1084:	4501                	li	a0,0
    1086:	8082                	ret

00001088 <__swrite>:
    1088:	00c5d783          	lhu	a5,12(a1)
    108c:	1101                	addi	sp,sp,-32
    108e:	cc22                	sw	s0,24(sp)
    1090:	ca26                	sw	s1,20(sp)
    1092:	c84a                	sw	s2,16(sp)
    1094:	c64e                	sw	s3,12(sp)
    1096:	ce06                	sw	ra,28(sp)
    1098:	1007f793          	andi	a5,a5,256
    109c:	84aa                	mv	s1,a0
    109e:	842e                	mv	s0,a1
    10a0:	8932                	mv	s2,a2
    10a2:	89b6                	mv	s3,a3
    10a4:	c791                	beqz	a5,10b0 <__swrite+0x28>
    10a6:	00e59583          	lh	a1,14(a1)
    10aa:	4689                	li	a3,2
    10ac:	4601                	li	a2,0
    10ae:	2a29                	jal	11c8 <_lseek_r>
    10b0:	00c45783          	lhu	a5,12(s0)
    10b4:	777d                	lui	a4,0xfffff
    10b6:	177d                	addi	a4,a4,-1
    10b8:	8ff9                	and	a5,a5,a4
    10ba:	00e41583          	lh	a1,14(s0)
    10be:	00f41623          	sh	a5,12(s0)
    10c2:	4462                	lw	s0,24(sp)
    10c4:	40f2                	lw	ra,28(sp)
    10c6:	86ce                	mv	a3,s3
    10c8:	864a                	mv	a2,s2
    10ca:	49b2                	lw	s3,12(sp)
    10cc:	4942                	lw	s2,16(sp)
    10ce:	8526                	mv	a0,s1
    10d0:	44d2                	lw	s1,20(sp)
    10d2:	6105                	addi	sp,sp,32
    10d4:	a83d                	j	1112 <_write_r>

000010d6 <__sseek>:
    10d6:	1141                	addi	sp,sp,-16
    10d8:	c422                	sw	s0,8(sp)
    10da:	842e                	mv	s0,a1
    10dc:	00e59583          	lh	a1,14(a1)
    10e0:	c606                	sw	ra,12(sp)
    10e2:	20dd                	jal	11c8 <_lseek_r>
    10e4:	577d                	li	a4,-1
    10e6:	00c45783          	lhu	a5,12(s0)
    10ea:	00e51b63          	bne	a0,a4,1100 <__sseek+0x2a>
    10ee:	777d                	lui	a4,0xfffff
    10f0:	177d                	addi	a4,a4,-1
    10f2:	8ff9                	and	a5,a5,a4
    10f4:	00f41623          	sh	a5,12(s0)
    10f8:	40b2                	lw	ra,12(sp)
    10fa:	4422                	lw	s0,8(sp)
    10fc:	0141                	addi	sp,sp,16
    10fe:	8082                	ret
    1100:	6705                	lui	a4,0x1
    1102:	8fd9                	or	a5,a5,a4
    1104:	00f41623          	sh	a5,12(s0)
    1108:	c868                	sw	a0,84(s0)
    110a:	b7fd                	j	10f8 <__sseek+0x22>

0000110c <__sclose>:
    110c:	00e59583          	lh	a1,14(a1)
    1110:	a80d                	j	1142 <_close_r>

00001112 <_write_r>:
    1112:	1141                	addi	sp,sp,-16
    1114:	c422                	sw	s0,8(sp)
    1116:	c226                	sw	s1,4(sp)
    1118:	842a                	mv	s0,a0
    111a:	852e                	mv	a0,a1
    111c:	85b2                	mv	a1,a2
    111e:	8636                	mv	a2,a3
    1120:	c606                	sw	ra,12(sp)
    1122:	8601a823          	sw	zero,-1936(gp) # 834c <errno>
    1126:	99eff0ef          	jal	ra,2c4 <_write>
    112a:	57fd                	li	a5,-1
    112c:	00f51663          	bne	a0,a5,1138 <_write_r+0x26>
    1130:	8701a783          	lw	a5,-1936(gp) # 834c <errno>
    1134:	c391                	beqz	a5,1138 <_write_r+0x26>
    1136:	c01c                	sw	a5,0(s0)
    1138:	40b2                	lw	ra,12(sp)
    113a:	4422                	lw	s0,8(sp)
    113c:	4492                	lw	s1,4(sp)
    113e:	0141                	addi	sp,sp,16
    1140:	8082                	ret

00001142 <_close_r>:
    1142:	1141                	addi	sp,sp,-16
    1144:	c422                	sw	s0,8(sp)
    1146:	c226                	sw	s1,4(sp)
    1148:	842a                	mv	s0,a0
    114a:	852e                	mv	a0,a1
    114c:	c606                	sw	ra,12(sp)
    114e:	8601a823          	sw	zero,-1936(gp) # 834c <errno>
    1152:	946ff0ef          	jal	ra,298 <_close>
    1156:	57fd                	li	a5,-1
    1158:	00f51663          	bne	a0,a5,1164 <_close_r+0x22>
    115c:	8701a783          	lw	a5,-1936(gp) # 834c <errno>
    1160:	c391                	beqz	a5,1164 <_close_r+0x22>
    1162:	c01c                	sw	a5,0(s0)
    1164:	40b2                	lw	ra,12(sp)
    1166:	4422                	lw	s0,8(sp)
    1168:	4492                	lw	s1,4(sp)
    116a:	0141                	addi	sp,sp,16
    116c:	8082                	ret

0000116e <_fstat_r>:
    116e:	1141                	addi	sp,sp,-16
    1170:	c422                	sw	s0,8(sp)
    1172:	c226                	sw	s1,4(sp)
    1174:	842a                	mv	s0,a0
    1176:	852e                	mv	a0,a1
    1178:	85b2                	mv	a1,a2
    117a:	c606                	sw	ra,12(sp)
    117c:	8601a823          	sw	zero,-1936(gp) # 834c <errno>
    1180:	92cff0ef          	jal	ra,2ac <_fstat>
    1184:	57fd                	li	a5,-1
    1186:	00f51663          	bne	a0,a5,1192 <_fstat_r+0x24>
    118a:	8701a783          	lw	a5,-1936(gp) # 834c <errno>
    118e:	c391                	beqz	a5,1192 <_fstat_r+0x24>
    1190:	c01c                	sw	a5,0(s0)
    1192:	40b2                	lw	ra,12(sp)
    1194:	4422                	lw	s0,8(sp)
    1196:	4492                	lw	s1,4(sp)
    1198:	0141                	addi	sp,sp,16
    119a:	8082                	ret

0000119c <_isatty_r>:
    119c:	1141                	addi	sp,sp,-16
    119e:	c422                	sw	s0,8(sp)
    11a0:	c226                	sw	s1,4(sp)
    11a2:	842a                	mv	s0,a0
    11a4:	852e                	mv	a0,a1
    11a6:	c606                	sw	ra,12(sp)
    11a8:	8601a823          	sw	zero,-1936(gp) # 834c <errno>
    11ac:	908ff0ef          	jal	ra,2b4 <_isatty>
    11b0:	57fd                	li	a5,-1
    11b2:	00f51663          	bne	a0,a5,11be <_isatty_r+0x22>
    11b6:	8701a783          	lw	a5,-1936(gp) # 834c <errno>
    11ba:	c391                	beqz	a5,11be <_isatty_r+0x22>
    11bc:	c01c                	sw	a5,0(s0)
    11be:	40b2                	lw	ra,12(sp)
    11c0:	4422                	lw	s0,8(sp)
    11c2:	4492                	lw	s1,4(sp)
    11c4:	0141                	addi	sp,sp,16
    11c6:	8082                	ret

000011c8 <_lseek_r>:
    11c8:	1141                	addi	sp,sp,-16
    11ca:	c422                	sw	s0,8(sp)
    11cc:	c226                	sw	s1,4(sp)
    11ce:	842a                	mv	s0,a0
    11d0:	852e                	mv	a0,a1
    11d2:	85b2                	mv	a1,a2
    11d4:	8636                	mv	a2,a3
    11d6:	c606                	sw	ra,12(sp)
    11d8:	8601a823          	sw	zero,-1936(gp) # 834c <errno>
    11dc:	8e0ff0ef          	jal	ra,2bc <_lseek>
    11e0:	57fd                	li	a5,-1
    11e2:	00f51663          	bne	a0,a5,11ee <_lseek_r+0x26>
    11e6:	8701a783          	lw	a5,-1936(gp) # 834c <errno>
    11ea:	c391                	beqz	a5,11ee <_lseek_r+0x26>
    11ec:	c01c                	sw	a5,0(s0)
    11ee:	40b2                	lw	ra,12(sp)
    11f0:	4422                	lw	s0,8(sp)
    11f2:	4492                	lw	s1,4(sp)
    11f4:	0141                	addi	sp,sp,16
    11f6:	8082                	ret

000011f8 <__malloc_lock>:
    11f8:	8082                	ret

000011fa <__malloc_unlock>:
    11fa:	8082                	ret

000011fc <_read_r>:
    11fc:	1141                	addi	sp,sp,-16
    11fe:	c422                	sw	s0,8(sp)
    1200:	c226                	sw	s1,4(sp)
    1202:	842a                	mv	s0,a0
    1204:	852e                	mv	a0,a1
    1206:	85b2                	mv	a1,a2
    1208:	8636                	mv	a2,a3
    120a:	c606                	sw	ra,12(sp)
    120c:	8601a823          	sw	zero,-1936(gp) # 834c <errno>
    1210:	8b0ff0ef          	jal	ra,2c0 <_read>
    1214:	57fd                	li	a5,-1
    1216:	00f51663          	bne	a0,a5,1222 <_read_r+0x26>
    121a:	8701a783          	lw	a5,-1936(gp) # 834c <errno>
    121e:	c391                	beqz	a5,1222 <_read_r+0x26>
    1220:	c01c                	sw	a5,0(s0)
    1222:	40b2                	lw	ra,12(sp)
    1224:	4422                	lw	s0,8(sp)
    1226:	4492                	lw	s1,4(sp)
    1228:	0141                	addi	sp,sp,16
    122a:	8082                	ret

0000122c <memcpy>:
    122c:	832a                	mv	t1,a0
    122e:	ca09                	beqz	a2,1240 <memcpy+0x14>
    1230:	00058383          	lb	t2,0(a1)
    1234:	00730023          	sb	t2,0(t1)
    1238:	167d                	addi	a2,a2,-1
    123a:	0305                	addi	t1,t1,1
    123c:	0585                	addi	a1,a1,1
    123e:	fa6d                	bnez	a2,1230 <memcpy+0x4>
    1240:	8082                	ret

00001242 <_iprintf_r>:
    1242:	7139                	addi	sp,sp,-64
    1244:	cc22                	sw	s0,24(sp)
    1246:	ca26                	sw	s1,20(sp)
    1248:	ce06                	sw	ra,28(sp)
    124a:	d432                	sw	a2,40(sp)
    124c:	d636                	sw	a3,44(sp)
    124e:	d83a                	sw	a4,48(sp)
    1250:	da3e                	sw	a5,52(sp)
    1252:	dc42                	sw	a6,56(sp)
    1254:	de46                	sw	a7,60(sp)
    1256:	842a                	mv	s0,a0
    1258:	84ae                	mv	s1,a1
    125a:	c509                	beqz	a0,1264 <_iprintf_r+0x22>
    125c:	4d1c                	lw	a5,24(a0)
    125e:	e399                	bnez	a5,1264 <_iprintf_r+0x22>
    1260:	977ff0ef          	jal	ra,bd6 <__sinit>
    1264:	440c                	lw	a1,8(s0)
    1266:	1034                	addi	a3,sp,40
    1268:	8626                	mv	a2,s1
    126a:	8522                	mv	a0,s0
    126c:	c636                	sw	a3,12(sp)
    126e:	28d1                	jal	1342 <_vfiprintf_r>
    1270:	40f2                	lw	ra,28(sp)
    1272:	4462                	lw	s0,24(sp)
    1274:	44d2                	lw	s1,20(sp)
    1276:	6121                	addi	sp,sp,64
    1278:	8082                	ret

0000127a <iprintf>:
    127a:	715d                	addi	sp,sp,-80
    127c:	c2be                	sw	a5,68(sp)
    127e:	d422                	sw	s0,40(sp)
    1280:	842a                	mv	s0,a0
    1282:	8681a503          	lw	a0,-1944(gp) # 8344 <_impure_ptr>
    1286:	d606                	sw	ra,44(sp)
    1288:	da2e                	sw	a1,52(sp)
    128a:	dc32                	sw	a2,56(sp)
    128c:	de36                	sw	a3,60(sp)
    128e:	c0ba                	sw	a4,64(sp)
    1290:	c4c2                	sw	a6,72(sp)
    1292:	c6c6                	sw	a7,76(sp)
    1294:	c519                	beqz	a0,12a2 <iprintf+0x28>
    1296:	4d1c                	lw	a5,24(a0)
    1298:	e789                	bnez	a5,12a2 <iprintf+0x28>
    129a:	c62a                	sw	a0,12(sp)
    129c:	93bff0ef          	jal	ra,bd6 <__sinit>
    12a0:	4532                	lw	a0,12(sp)
    12a2:	450c                	lw	a1,8(a0)
    12a4:	1854                	addi	a3,sp,52
    12a6:	8622                	mv	a2,s0
    12a8:	ce36                	sw	a3,28(sp)
    12aa:	2861                	jal	1342 <_vfiprintf_r>
    12ac:	50b2                	lw	ra,44(sp)
    12ae:	5422                	lw	s0,40(sp)
    12b0:	6161                	addi	sp,sp,80
    12b2:	8082                	ret

000012b4 <__sfputc_r>:
    12b4:	461c                	lw	a5,8(a2)
    12b6:	17fd                	addi	a5,a5,-1
    12b8:	c61c                	sw	a5,8(a2)
    12ba:	0007da63          	bgez	a5,12ce <__sfputc_r+0x1a>
    12be:	4e18                	lw	a4,24(a2)
    12c0:	00e7c563          	blt	a5,a4,12ca <__sfputc_r+0x16>
    12c4:	47a9                	li	a5,10
    12c6:	00f59463          	bne	a1,a5,12ce <__sfputc_r+0x1a>
    12ca:	b8eff06f          	j	658 <__swbuf_r>
    12ce:	421c                	lw	a5,0(a2)
    12d0:	852e                	mv	a0,a1
    12d2:	00178713          	addi	a4,a5,1
    12d6:	c218                	sw	a4,0(a2)
    12d8:	00b78023          	sb	a1,0(a5)
    12dc:	8082                	ret

000012de <__sfputs_r>:
    12de:	1101                	addi	sp,sp,-32
    12e0:	cc22                	sw	s0,24(sp)
    12e2:	ca26                	sw	s1,20(sp)
    12e4:	c84a                	sw	s2,16(sp)
    12e6:	c64e                	sw	s3,12(sp)
    12e8:	c452                	sw	s4,8(sp)
    12ea:	ce06                	sw	ra,28(sp)
    12ec:	892a                	mv	s2,a0
    12ee:	89ae                	mv	s3,a1
    12f0:	8432                	mv	s0,a2
    12f2:	00d604b3          	add	s1,a2,a3
    12f6:	5a7d                	li	s4,-1
    12f8:	00941463          	bne	s0,s1,1300 <__sfputs_r+0x22>
    12fc:	4501                	li	a0,0
    12fe:	a809                	j	1310 <__sfputs_r+0x32>
    1300:	00044583          	lbu	a1,0(s0)
    1304:	864e                	mv	a2,s3
    1306:	854a                	mv	a0,s2
    1308:	3775                	jal	12b4 <__sfputc_r>
    130a:	0405                	addi	s0,s0,1
    130c:	ff4516e3          	bne	a0,s4,12f8 <__sfputs_r+0x1a>
    1310:	40f2                	lw	ra,28(sp)
    1312:	4462                	lw	s0,24(sp)
    1314:	44d2                	lw	s1,20(sp)
    1316:	4942                	lw	s2,16(sp)
    1318:	49b2                	lw	s3,12(sp)
    131a:	4a22                	lw	s4,8(sp)
    131c:	6105                	addi	sp,sp,32
    131e:	8082                	ret

00001320 <__sprint_r>:
    1320:	461c                	lw	a5,8(a2)
    1322:	1141                	addi	sp,sp,-16
    1324:	c422                	sw	s0,8(sp)
    1326:	c606                	sw	ra,12(sp)
    1328:	8432                	mv	s0,a2
    132a:	cb91                	beqz	a5,133e <__sprint_r+0x1e>
    132c:	2d39                	jal	194a <__sfvwrite_r>
    132e:	00042423          	sw	zero,8(s0)
    1332:	40b2                	lw	ra,12(sp)
    1334:	00042223          	sw	zero,4(s0)
    1338:	4422                	lw	s0,8(sp)
    133a:	0141                	addi	sp,sp,16
    133c:	8082                	ret
    133e:	4501                	li	a0,0
    1340:	bfcd                	j	1332 <__sprint_r+0x12>

00001342 <_vfiprintf_r>:
    1342:	7171                	addi	sp,sp,-176
    1344:	d522                	sw	s0,168(sp)
    1346:	d326                	sw	s1,164(sp)
    1348:	d14a                	sw	s2,160(sp)
    134a:	cf4e                	sw	s3,156(sp)
    134c:	d706                	sw	ra,172(sp)
    134e:	cd52                	sw	s4,152(sp)
    1350:	cb56                	sw	s5,148(sp)
    1352:	c95a                	sw	s6,144(sp)
    1354:	c75e                	sw	s7,140(sp)
    1356:	c562                	sw	s8,136(sp)
    1358:	c366                	sw	s9,132(sp)
    135a:	c16a                	sw	s10,128(sp)
    135c:	deee                	sw	s11,124(sp)
    135e:	89aa                	mv	s3,a0
    1360:	84ae                	mv	s1,a1
    1362:	8932                	mv	s2,a2
    1364:	8436                	mv	s0,a3
    1366:	c509                	beqz	a0,1370 <_vfiprintf_r+0x2e>
    1368:	4d1c                	lw	a5,24(a0)
    136a:	e399                	bnez	a5,1370 <_vfiprintf_r+0x2e>
    136c:	86bff0ef          	jal	ra,bd6 <__sinit>
    1370:	67a1                	lui	a5,0x8
    1372:	20878793          	addi	a5,a5,520 # 8208 <__sf_fake_stdin>
    1376:	0ef49163          	bne	s1,a5,1458 <_vfiprintf_r+0x116>
    137a:	0049a483          	lw	s1,4(s3)
    137e:	00c4d783          	lhu	a5,12(s1)
    1382:	8ba1                	andi	a5,a5,8
    1384:	0e078a63          	beqz	a5,1478 <_vfiprintf_r+0x136>
    1388:	489c                	lw	a5,16(s1)
    138a:	0e078763          	beqz	a5,1478 <_vfiprintf_r+0x136>
    138e:	02000793          	li	a5,32
    1392:	02f104a3          	sb	a5,41(sp)
    1396:	03000793          	li	a5,48
    139a:	d202                	sw	zero,36(sp)
    139c:	02f10523          	sb	a5,42(sp)
    13a0:	c622                	sw	s0,12(sp)
    13a2:	02500c93          	li	s9,37
    13a6:	6b21                	lui	s6,0x8
    13a8:	6ba1                	lui	s7,0x8
    13aa:	6d21                	lui	s10,0x8
    13ac:	6c05                	lui	s8,0x1
    13ae:	00000a93          	li	s5,0
    13b2:	844a                	mv	s0,s2
    13b4:	00044783          	lbu	a5,0(s0)
    13b8:	c399                	beqz	a5,13be <_vfiprintf_r+0x7c>
    13ba:	0f979563          	bne	a5,s9,14a4 <_vfiprintf_r+0x162>
    13be:	41240db3          	sub	s11,s0,s2
    13c2:	01240d63          	beq	s0,s2,13dc <_vfiprintf_r+0x9a>
    13c6:	86ee                	mv	a3,s11
    13c8:	864a                	mv	a2,s2
    13ca:	85a6                	mv	a1,s1
    13cc:	854e                	mv	a0,s3
    13ce:	3f01                	jal	12de <__sfputs_r>
    13d0:	57fd                	li	a5,-1
    13d2:	1ef50263          	beq	a0,a5,15b6 <handler.c.68229caa+0xd5>
    13d6:	5792                	lw	a5,36(sp)
    13d8:	97ee                	add	a5,a5,s11
    13da:	d23e                	sw	a5,36(sp)
    13dc:	00044783          	lbu	a5,0(s0)
    13e0:	1c078b63          	beqz	a5,15b6 <handler.c.68229caa+0xd5>
    13e4:	57fd                	li	a5,-1
    13e6:	00140913          	addi	s2,s0,1
    13ea:	c802                	sw	zero,16(sp)
    13ec:	ce02                	sw	zero,28(sp)
    13ee:	ca3e                	sw	a5,20(sp)
    13f0:	cc02                	sw	zero,24(sp)
    13f2:	040109a3          	sb	zero,83(sp)
    13f6:	d482                	sw	zero,104(sp)
    13f8:	4d85                	li	s11,1
    13fa:	00094583          	lbu	a1,0(s2)
    13fe:	4615                	li	a2,5
    1400:	248b0513          	addi	a0,s6,584 # 8248 <__sf_fake_stdout+0x20>
    1404:	013000ef          	jal	ra,1c16 <memchr>
    1408:	47c2                	lw	a5,16(sp)
    140a:	00190413          	addi	s0,s2,1
    140e:	ed49                	bnez	a0,14a8 <_vfiprintf_r+0x166>
    1410:	0107f713          	andi	a4,a5,16
    1414:	c709                	beqz	a4,141e <_vfiprintf_r+0xdc>
    1416:	02000713          	li	a4,32
    141a:	04e109a3          	sb	a4,83(sp)
    141e:	0087f713          	andi	a4,a5,8
    1422:	c709                	beqz	a4,142c <_vfiprintf_r+0xea>
    1424:	02b00713          	li	a4,43
    1428:	04e109a3          	sb	a4,83(sp)
    142c:	00094683          	lbu	a3,0(s2)
    1430:	02a00713          	li	a4,42
    1434:	08e68363          	beq	a3,a4,14ba <_vfiprintf_r+0x178>
    1438:	47f2                	lw	a5,28(sp)
    143a:	844a                	mv	s0,s2
    143c:	4681                	li	a3,0
    143e:	4625                	li	a2,9
    1440:	4529                	li	a0,10
    1442:	00044703          	lbu	a4,0(s0)
    1446:	00140593          	addi	a1,s0,1
    144a:	fd070713          	addi	a4,a4,-48 # fd0 <_malloc_r+0x7c>
    144e:	0ae67b63          	bgeu	a2,a4,1504 <handler.c.68229caa+0x23>
    1452:	cea5                	beqz	a3,14ca <_vfiprintf_r+0x188>
    1454:	ce3e                	sw	a5,28(sp)
    1456:	a895                	j	14ca <_vfiprintf_r+0x188>
    1458:	67a1                	lui	a5,0x8
    145a:	22878793          	addi	a5,a5,552 # 8228 <__sf_fake_stdout>
    145e:	00f49563          	bne	s1,a5,1468 <_vfiprintf_r+0x126>
    1462:	0089a483          	lw	s1,8(s3)
    1466:	bf21                	j	137e <_vfiprintf_r+0x3c>
    1468:	67a1                	lui	a5,0x8
    146a:	1e878793          	addi	a5,a5,488 # 81e8 <__sf_fake_stderr>
    146e:	f0f498e3          	bne	s1,a5,137e <_vfiprintf_r+0x3c>
    1472:	00c9a483          	lw	s1,12(s3)
    1476:	b721                	j	137e <_vfiprintf_r+0x3c>
    1478:	85a6                	mv	a1,s1
    147a:	854e                	mv	a0,s3
    147c:	aa0ff0ef          	jal	ra,71c <__swsetup_r>
    1480:	f00507e3          	beqz	a0,138e <_vfiprintf_r+0x4c>
    1484:	557d                	li	a0,-1
    1486:	50ba                	lw	ra,172(sp)
    1488:	542a                	lw	s0,168(sp)
    148a:	549a                	lw	s1,164(sp)
    148c:	590a                	lw	s2,160(sp)
    148e:	49fa                	lw	s3,156(sp)
    1490:	4a6a                	lw	s4,152(sp)
    1492:	4ada                	lw	s5,148(sp)
    1494:	4b4a                	lw	s6,144(sp)
    1496:	4bba                	lw	s7,140(sp)
    1498:	4c2a                	lw	s8,136(sp)
    149a:	4c9a                	lw	s9,132(sp)
    149c:	4d0a                	lw	s10,128(sp)
    149e:	5df6                	lw	s11,124(sp)
    14a0:	614d                	addi	sp,sp,176
    14a2:	8082                	ret
    14a4:	0405                	addi	s0,s0,1
    14a6:	b739                	j	13b4 <_vfiprintf_r+0x72>
    14a8:	248b0713          	addi	a4,s6,584
    14ac:	8d19                	sub	a0,a0,a4
    14ae:	00ad9533          	sll	a0,s11,a0
    14b2:	8fc9                	or	a5,a5,a0
    14b4:	c83e                	sw	a5,16(sp)
    14b6:	8922                	mv	s2,s0
    14b8:	b789                	j	13fa <_vfiprintf_r+0xb8>
    14ba:	4732                	lw	a4,12(sp)
    14bc:	00470693          	addi	a3,a4,4
    14c0:	4318                	lw	a4,0(a4)
    14c2:	c636                	sw	a3,12(sp)
    14c4:	02074963          	bltz	a4,14f6 <handler.c.68229caa+0x15>
    14c8:	ce3a                	sw	a4,28(sp)
    14ca:	00044703          	lbu	a4,0(s0)
    14ce:	02e00793          	li	a5,46
    14d2:	06f71063          	bne	a4,a5,1532 <handler.c.68229caa+0x51>
    14d6:	00144703          	lbu	a4,1(s0)
    14da:	02a00793          	li	a5,42
    14de:	02f71b63          	bne	a4,a5,1514 <handler.c.68229caa+0x33>
    14e2:	47b2                	lw	a5,12(sp)
    14e4:	0409                	addi	s0,s0,2
    14e6:	00478713          	addi	a4,a5,4
    14ea:	439c                	lw	a5,0(a5)
    14ec:	c63a                	sw	a4,12(sp)
    14ee:	0207c163          	bltz	a5,1510 <handler.c.68229caa+0x2f>
    14f2:	ca3e                	sw	a5,20(sp)
    14f4:	a83d                	j	1532 <handler.c.68229caa+0x51>
    14f6:	40e00733          	neg	a4,a4
    14fa:	0027e793          	ori	a5,a5,2
    14fe:	ce3a                	sw	a4,28(sp)
    1500:	c83e                	sw	a5,16(sp)
    1502:	b7e1                	j	14ca <_vfiprintf_r+0x188>
    1504:	02a787b3          	mul	a5,a5,a0
    1508:	842e                	mv	s0,a1
    150a:	4685                	li	a3,1
    150c:	97ba                	add	a5,a5,a4
    150e:	bf15                	j	1442 <_vfiprintf_r+0x100>
    1510:	57fd                	li	a5,-1
    1512:	b7c5                	j	14f2 <handler.c.68229caa+0x11>
    1514:	0405                	addi	s0,s0,1
    1516:	ca02                	sw	zero,20(sp)
    1518:	4681                	li	a3,0
    151a:	4781                	li	a5,0
    151c:	4625                	li	a2,9
    151e:	4529                	li	a0,10
    1520:	00044703          	lbu	a4,0(s0)
    1524:	00140593          	addi	a1,s0,1
    1528:	fd070713          	addi	a4,a4,-48
    152c:	04e67d63          	bgeu	a2,a4,1586 <handler.c.68229caa+0xa5>
    1530:	f2e9                	bnez	a3,14f2 <handler.c.68229caa+0x11>
    1532:	00044583          	lbu	a1,0(s0)
    1536:	460d                	li	a2,3
    1538:	250b8513          	addi	a0,s7,592 # 8250 <__sf_fake_stdout+0x28>
    153c:	2de9                	jal	1c16 <memchr>
    153e:	cd01                	beqz	a0,1556 <handler.c.68229caa+0x75>
    1540:	250b8793          	addi	a5,s7,592
    1544:	8d1d                	sub	a0,a0,a5
    1546:	47c2                	lw	a5,16(sp)
    1548:	04000713          	li	a4,64
    154c:	00a71733          	sll	a4,a4,a0
    1550:	8fd9                	or	a5,a5,a4
    1552:	0405                	addi	s0,s0,1
    1554:	c83e                	sw	a5,16(sp)
    1556:	00044583          	lbu	a1,0(s0)
    155a:	4619                	li	a2,6
    155c:	254d0513          	addi	a0,s10,596 # 8254 <__sf_fake_stdout+0x2c>
    1560:	00140913          	addi	s2,s0,1
    1564:	02b10423          	sb	a1,40(sp)
    1568:	257d                	jal	1c16 <memchr>
    156a:	cd31                	beqz	a0,15c6 <handler.c.68229caa+0xe5>
    156c:	020a9763          	bnez	s5,159a <handler.c.68229caa+0xb9>
    1570:	4742                	lw	a4,16(sp)
    1572:	47b2                	lw	a5,12(sp)
    1574:	10077713          	andi	a4,a4,256
    1578:	cf09                	beqz	a4,1592 <handler.c.68229caa+0xb1>
    157a:	0791                	addi	a5,a5,4
    157c:	c63e                	sw	a5,12(sp)
    157e:	5792                	lw	a5,36(sp)
    1580:	97d2                	add	a5,a5,s4
    1582:	d23e                	sw	a5,36(sp)
    1584:	b53d                	j	13b2 <_vfiprintf_r+0x70>
    1586:	02a787b3          	mul	a5,a5,a0
    158a:	842e                	mv	s0,a1
    158c:	4685                	li	a3,1
    158e:	97ba                	add	a5,a5,a4
    1590:	bf41                	j	1520 <handler.c.68229caa+0x3f>
    1592:	079d                	addi	a5,a5,7
    1594:	9be1                	andi	a5,a5,-8
    1596:	07a1                	addi	a5,a5,8
    1598:	b7d5                	j	157c <handler.c.68229caa+0x9b>
    159a:	0078                	addi	a4,sp,12
    159c:	2dec0693          	addi	a3,s8,734 # 12de <__sfputs_r>
    15a0:	8626                	mv	a2,s1
    15a2:	080c                	addi	a1,sp,16
    15a4:	854e                	mv	a0,s3
    15a6:	00000097          	auipc	ra,0x0
    15aa:	000000e7          	jalr	zero # 0 <__vector_start>
    15ae:	57fd                	li	a5,-1
    15b0:	8a2a                	mv	s4,a0
    15b2:	fcf516e3          	bne	a0,a5,157e <handler.c.68229caa+0x9d>
    15b6:	00c4d783          	lhu	a5,12(s1)
    15ba:	0407f793          	andi	a5,a5,64
    15be:	ec0793e3          	bnez	a5,1484 <_vfiprintf_r+0x142>
    15c2:	5512                	lw	a0,36(sp)
    15c4:	b5c9                	j	1486 <_vfiprintf_r+0x144>
    15c6:	0078                	addi	a4,sp,12
    15c8:	2dec0693          	addi	a3,s8,734
    15cc:	8626                	mv	a2,s1
    15ce:	080c                	addi	a1,sp,16
    15d0:	854e                	mv	a0,s3
    15d2:	2205                	jal	16f2 <_printf_i>
    15d4:	bfe9                	j	15ae <handler.c.68229caa+0xcd>

000015d6 <vfiprintf>:
    15d6:	86b2                	mv	a3,a2
    15d8:	862e                	mv	a2,a1
    15da:	85aa                	mv	a1,a0
    15dc:	8681a503          	lw	a0,-1944(gp) # 8344 <_impure_ptr>
    15e0:	b38d                	j	1342 <_vfiprintf_r>

000015e2 <_printf_common>:
    15e2:	7179                	addi	sp,sp,-48
    15e4:	cc52                	sw	s4,24(sp)
    15e6:	499c                	lw	a5,16(a1)
    15e8:	8a3a                	mv	s4,a4
    15ea:	4598                	lw	a4,8(a1)
    15ec:	d422                	sw	s0,40(sp)
    15ee:	d04a                	sw	s2,32(sp)
    15f0:	ce4e                	sw	s3,28(sp)
    15f2:	ca56                	sw	s5,20(sp)
    15f4:	d606                	sw	ra,44(sp)
    15f6:	d226                	sw	s1,36(sp)
    15f8:	c85a                	sw	s6,16(sp)
    15fa:	c65e                	sw	s7,12(sp)
    15fc:	89aa                	mv	s3,a0
    15fe:	842e                	mv	s0,a1
    1600:	8932                	mv	s2,a2
    1602:	8ab6                	mv	s5,a3
    1604:	00e7d363          	bge	a5,a4,160a <_printf_common+0x28>
    1608:	87ba                	mv	a5,a4
    160a:	00f92023          	sw	a5,0(s2)
    160e:	04344703          	lbu	a4,67(s0)
    1612:	c701                	beqz	a4,161a <_printf_common+0x38>
    1614:	0785                	addi	a5,a5,1
    1616:	00f92023          	sw	a5,0(s2)
    161a:	401c                	lw	a5,0(s0)
    161c:	0207f793          	andi	a5,a5,32
    1620:	c791                	beqz	a5,162c <_printf_common+0x4a>
    1622:	00092783          	lw	a5,0(s2)
    1626:	0789                	addi	a5,a5,2
    1628:	00f92023          	sw	a5,0(s2)
    162c:	4004                	lw	s1,0(s0)
    162e:	8899                	andi	s1,s1,6
    1630:	e891                	bnez	s1,1644 <_printf_common+0x62>
    1632:	01940b13          	addi	s6,s0,25
    1636:	5bfd                	li	s7,-1
    1638:	445c                	lw	a5,12(s0)
    163a:	00092703          	lw	a4,0(s2)
    163e:	8f99                	sub	a5,a5,a4
    1640:	04f4cc63          	blt	s1,a5,1698 <_printf_common+0xb6>
    1644:	04344783          	lbu	a5,67(s0)
    1648:	00f036b3          	snez	a3,a5
    164c:	401c                	lw	a5,0(s0)
    164e:	0207f793          	andi	a5,a5,32
    1652:	eba5                	bnez	a5,16c2 <_printf_common+0xe0>
    1654:	04340613          	addi	a2,s0,67
    1658:	85d6                	mv	a1,s5
    165a:	854e                	mv	a0,s3
    165c:	9a02                	jalr	s4
    165e:	57fd                	li	a5,-1
    1660:	04f50363          	beq	a0,a5,16a6 <_printf_common+0xc4>
    1664:	401c                	lw	a5,0(s0)
    1666:	4711                	li	a4,4
    1668:	4481                	li	s1,0
    166a:	8b99                	andi	a5,a5,6
    166c:	00e79963          	bne	a5,a4,167e <_printf_common+0x9c>
    1670:	4444                	lw	s1,12(s0)
    1672:	00092783          	lw	a5,0(s2)
    1676:	8c9d                	sub	s1,s1,a5
    1678:	0004d363          	bgez	s1,167e <_printf_common+0x9c>
    167c:	4481                	li	s1,0
    167e:	441c                	lw	a5,8(s0)
    1680:	4818                	lw	a4,16(s0)
    1682:	00f75463          	bge	a4,a5,168a <_printf_common+0xa8>
    1686:	8f99                	sub	a5,a5,a4
    1688:	94be                	add	s1,s1,a5
    168a:	4901                	li	s2,0
    168c:	0469                	addi	s0,s0,26
    168e:	5b7d                	li	s6,-1
    1690:	05249863          	bne	s1,s2,16e0 <_printf_common+0xfe>
    1694:	4501                	li	a0,0
    1696:	a809                	j	16a8 <_printf_common+0xc6>
    1698:	4685                	li	a3,1
    169a:	865a                	mv	a2,s6
    169c:	85d6                	mv	a1,s5
    169e:	854e                	mv	a0,s3
    16a0:	9a02                	jalr	s4
    16a2:	01751e63          	bne	a0,s7,16be <_printf_common+0xdc>
    16a6:	557d                	li	a0,-1
    16a8:	50b2                	lw	ra,44(sp)
    16aa:	5422                	lw	s0,40(sp)
    16ac:	5492                	lw	s1,36(sp)
    16ae:	5902                	lw	s2,32(sp)
    16b0:	49f2                	lw	s3,28(sp)
    16b2:	4a62                	lw	s4,24(sp)
    16b4:	4ad2                	lw	s5,20(sp)
    16b6:	4b42                	lw	s6,16(sp)
    16b8:	4bb2                	lw	s7,12(sp)
    16ba:	6145                	addi	sp,sp,48
    16bc:	8082                	ret
    16be:	0485                	addi	s1,s1,1
    16c0:	bfa5                	j	1638 <_printf_common+0x56>
    16c2:	00d40733          	add	a4,s0,a3
    16c6:	03000613          	li	a2,48
    16ca:	04c701a3          	sb	a2,67(a4)
    16ce:	04544703          	lbu	a4,69(s0)
    16d2:	00168793          	addi	a5,a3,1 # 1001 <__heap_size+0x1>
    16d6:	97a2                	add	a5,a5,s0
    16d8:	0689                	addi	a3,a3,2
    16da:	04e781a3          	sb	a4,67(a5)
    16de:	bf9d                	j	1654 <_printf_common+0x72>
    16e0:	4685                	li	a3,1
    16e2:	8622                	mv	a2,s0
    16e4:	85d6                	mv	a1,s5
    16e6:	854e                	mv	a0,s3
    16e8:	9a02                	jalr	s4
    16ea:	fb650ee3          	beq	a0,s6,16a6 <_printf_common+0xc4>
    16ee:	0905                	addi	s2,s2,1
    16f0:	b745                	j	1690 <_printf_common+0xae>

000016f2 <_printf_i>:
    16f2:	7179                	addi	sp,sp,-48
    16f4:	d422                	sw	s0,40(sp)
    16f6:	d226                	sw	s1,36(sp)
    16f8:	d04a                	sw	s2,32(sp)
    16fa:	ce4e                	sw	s3,28(sp)
    16fc:	d606                	sw	ra,44(sp)
    16fe:	cc52                	sw	s4,24(sp)
    1700:	ca56                	sw	s5,20(sp)
    1702:	c85a                	sw	s6,16(sp)
    1704:	0185c883          	lbu	a7,24(a1)
    1708:	07800793          	li	a5,120
    170c:	84aa                	mv	s1,a0
    170e:	842e                	mv	s0,a1
    1710:	8932                	mv	s2,a2
    1712:	89b6                	mv	s3,a3
    1714:	0117ee63          	bltu	a5,a7,1730 <_printf_i+0x3e>
    1718:	06200793          	li	a5,98
    171c:	04358693          	addi	a3,a1,67
    1720:	0117ed63          	bltu	a5,a7,173a <mmio.c.a041d146+0x1>
    1724:	1a088963          	beqz	a7,18d6 <mmio.c.a041d146+0x19d>
    1728:	05800793          	li	a5,88
    172c:	16f88b63          	beq	a7,a5,18a2 <mmio.c.a041d146+0x169>
    1730:	04240a93          	addi	s5,s0,66
    1734:	05140123          	sb	a7,66(s0)
    1738:	a805                	j	1768 <mmio.c.a041d146+0x2f>
    173a:	f9d88793          	addi	a5,a7,-99
    173e:	0ff7f793          	zext.b	a5,a5
    1742:	4655                	li	a2,21
    1744:	fef666e3          	bltu	a2,a5,1730 <_printf_i+0x3e>
    1748:	6621                	lui	a2,0x8
    174a:	078a                	slli	a5,a5,0x2
    174c:	28460613          	addi	a2,a2,644 # 8284 <__sf_fake_stdout+0x5c>
    1750:	97b2                	add	a5,a5,a2
    1752:	439c                	lw	a5,0(a5)
    1754:	8782                	jr	a5
    1756:	431c                	lw	a5,0(a4)
    1758:	04258a93          	addi	s5,a1,66
    175c:	00478693          	addi	a3,a5,4
    1760:	439c                	lw	a5,0(a5)
    1762:	c314                	sw	a3,0(a4)
    1764:	04f58123          	sb	a5,66(a1)
    1768:	4785                	li	a5,1
    176a:	aa49                	j	18fc <mmio.c.a041d146+0x1c3>
    176c:	419c                	lw	a5,0(a1)
    176e:	4308                	lw	a0,0(a4)
    1770:	0807f613          	andi	a2,a5,128
    1774:	00450593          	addi	a1,a0,4
    1778:	c205                	beqz	a2,1798 <mmio.c.a041d146+0x5f>
    177a:	411c                	lw	a5,0(a0)
    177c:	c30c                	sw	a1,0(a4)
    177e:	6821                	lui	a6,0x8
    1780:	0007d863          	bgez	a5,1790 <mmio.c.a041d146+0x57>
    1784:	02d00713          	li	a4,45
    1788:	40f007b3          	neg	a5,a5
    178c:	04e401a3          	sb	a4,67(s0)
    1790:	25c80813          	addi	a6,a6,604 # 825c <__sf_fake_stdout+0x34>
    1794:	4729                	li	a4,10
    1796:	a099                	j	17dc <mmio.c.a041d146+0xa3>
    1798:	0407f613          	andi	a2,a5,64
    179c:	411c                	lw	a5,0(a0)
    179e:	c30c                	sw	a1,0(a4)
    17a0:	de79                	beqz	a2,177e <mmio.c.a041d146+0x45>
    17a2:	07c2                	slli	a5,a5,0x10
    17a4:	87c1                	srai	a5,a5,0x10
    17a6:	bfe1                	j	177e <mmio.c.a041d146+0x45>
    17a8:	4190                	lw	a2,0(a1)
    17aa:	431c                	lw	a5,0(a4)
    17ac:	08067513          	andi	a0,a2,128
    17b0:	00478593          	addi	a1,a5,4
    17b4:	c501                	beqz	a0,17bc <mmio.c.a041d146+0x83>
    17b6:	c30c                	sw	a1,0(a4)
    17b8:	439c                	lw	a5,0(a5)
    17ba:	a039                	j	17c8 <mmio.c.a041d146+0x8f>
    17bc:	04067613          	andi	a2,a2,64
    17c0:	c30c                	sw	a1,0(a4)
    17c2:	da7d                	beqz	a2,17b8 <mmio.c.a041d146+0x7f>
    17c4:	0007d783          	lhu	a5,0(a5)
    17c8:	6821                	lui	a6,0x8
    17ca:	06f00713          	li	a4,111
    17ce:	25c80813          	addi	a6,a6,604 # 825c <__sf_fake_stdout+0x34>
    17d2:	0ce88c63          	beq	a7,a4,18aa <mmio.c.a041d146+0x171>
    17d6:	4729                	li	a4,10
    17d8:	040401a3          	sb	zero,67(s0)
    17dc:	4050                	lw	a2,4(s0)
    17de:	c410                	sw	a2,8(s0)
    17e0:	00064563          	bltz	a2,17ea <mmio.c.a041d146+0xb1>
    17e4:	400c                	lw	a1,0(s0)
    17e6:	99ed                	andi	a1,a1,-5
    17e8:	c00c                	sw	a1,0(s0)
    17ea:	e399                	bnez	a5,17f0 <mmio.c.a041d146+0xb7>
    17ec:	8ab6                	mv	s5,a3
    17ee:	ce19                	beqz	a2,180c <mmio.c.a041d146+0xd3>
    17f0:	8ab6                	mv	s5,a3
    17f2:	02e7f633          	remu	a2,a5,a4
    17f6:	1afd                	addi	s5,s5,-1
    17f8:	9642                	add	a2,a2,a6
    17fa:	00064603          	lbu	a2,0(a2)
    17fe:	00ca8023          	sb	a2,0(s5)
    1802:	863e                	mv	a2,a5
    1804:	02e7d7b3          	divu	a5,a5,a4
    1808:	fee675e3          	bgeu	a2,a4,17f2 <mmio.c.a041d146+0xb9>
    180c:	47a1                	li	a5,8
    180e:	00f71e63          	bne	a4,a5,182a <mmio.c.a041d146+0xf1>
    1812:	401c                	lw	a5,0(s0)
    1814:	8b85                	andi	a5,a5,1
    1816:	cb91                	beqz	a5,182a <mmio.c.a041d146+0xf1>
    1818:	4058                	lw	a4,4(s0)
    181a:	481c                	lw	a5,16(s0)
    181c:	00e7c763          	blt	a5,a4,182a <mmio.c.a041d146+0xf1>
    1820:	03000793          	li	a5,48
    1824:	fefa8fa3          	sb	a5,-1(s5)
    1828:	1afd                	addi	s5,s5,-1
    182a:	415686b3          	sub	a3,a3,s5
    182e:	c814                	sw	a3,16(s0)
    1830:	874e                	mv	a4,s3
    1832:	86ca                	mv	a3,s2
    1834:	0070                	addi	a2,sp,12
    1836:	85a2                	mv	a1,s0
    1838:	8526                	mv	a0,s1
    183a:	3365                	jal	15e2 <_printf_common>
    183c:	5a7d                	li	s4,-1
    183e:	0d451363          	bne	a0,s4,1904 <mmio.c.a041d146+0x1cb>
    1842:	557d                	li	a0,-1
    1844:	50b2                	lw	ra,44(sp)
    1846:	5422                	lw	s0,40(sp)
    1848:	5492                	lw	s1,36(sp)
    184a:	5902                	lw	s2,32(sp)
    184c:	49f2                	lw	s3,28(sp)
    184e:	4a62                	lw	s4,24(sp)
    1850:	4ad2                	lw	s5,20(sp)
    1852:	4b42                	lw	s6,16(sp)
    1854:	6145                	addi	sp,sp,48
    1856:	8082                	ret
    1858:	419c                	lw	a5,0(a1)
    185a:	0207e793          	ori	a5,a5,32
    185e:	c19c                	sw	a5,0(a1)
    1860:	6821                	lui	a6,0x8
    1862:	07800893          	li	a7,120
    1866:	27080813          	addi	a6,a6,624 # 8270 <__sf_fake_stdout+0x48>
    186a:	051402a3          	sb	a7,69(s0)
    186e:	4010                	lw	a2,0(s0)
    1870:	430c                	lw	a1,0(a4)
    1872:	08067513          	andi	a0,a2,128
    1876:	419c                	lw	a5,0(a1)
    1878:	0591                	addi	a1,a1,4
    187a:	e511                	bnez	a0,1886 <mmio.c.a041d146+0x14d>
    187c:	04067513          	andi	a0,a2,64
    1880:	c119                	beqz	a0,1886 <mmio.c.a041d146+0x14d>
    1882:	07c2                	slli	a5,a5,0x10
    1884:	83c1                	srli	a5,a5,0x10
    1886:	c30c                	sw	a1,0(a4)
    1888:	00167713          	andi	a4,a2,1
    188c:	c701                	beqz	a4,1894 <mmio.c.a041d146+0x15b>
    188e:	02066613          	ori	a2,a2,32
    1892:	c010                	sw	a2,0(s0)
    1894:	4741                	li	a4,16
    1896:	f3a9                	bnez	a5,17d8 <mmio.c.a041d146+0x9f>
    1898:	4010                	lw	a2,0(s0)
    189a:	fdf67613          	andi	a2,a2,-33
    189e:	c010                	sw	a2,0(s0)
    18a0:	bf25                	j	17d8 <mmio.c.a041d146+0x9f>
    18a2:	6821                	lui	a6,0x8
    18a4:	25c80813          	addi	a6,a6,604 # 825c <__sf_fake_stdout+0x34>
    18a8:	b7c9                	j	186a <mmio.c.a041d146+0x131>
    18aa:	4721                	li	a4,8
    18ac:	b735                	j	17d8 <mmio.c.a041d146+0x9f>
    18ae:	4190                	lw	a2,0(a1)
    18b0:	431c                	lw	a5,0(a4)
    18b2:	49cc                	lw	a1,20(a1)
    18b4:	08067813          	andi	a6,a2,128
    18b8:	00478513          	addi	a0,a5,4
    18bc:	00080663          	beqz	a6,18c8 <mmio.c.a041d146+0x18f>
    18c0:	c308                	sw	a0,0(a4)
    18c2:	439c                	lw	a5,0(a5)
    18c4:	c38c                	sw	a1,0(a5)
    18c6:	a801                	j	18d6 <mmio.c.a041d146+0x19d>
    18c8:	c308                	sw	a0,0(a4)
    18ca:	04067613          	andi	a2,a2,64
    18ce:	439c                	lw	a5,0(a5)
    18d0:	da75                	beqz	a2,18c4 <mmio.c.a041d146+0x18b>
    18d2:	00b79023          	sh	a1,0(a5)
    18d6:	00042823          	sw	zero,16(s0)
    18da:	8ab6                	mv	s5,a3
    18dc:	bf91                	j	1830 <mmio.c.a041d146+0xf7>
    18de:	431c                	lw	a5,0(a4)
    18e0:	41d0                	lw	a2,4(a1)
    18e2:	4581                	li	a1,0
    18e4:	00478693          	addi	a3,a5,4
    18e8:	c314                	sw	a3,0(a4)
    18ea:	0007aa83          	lw	s5,0(a5)
    18ee:	8556                	mv	a0,s5
    18f0:	261d                	jal	1c16 <memchr>
    18f2:	c501                	beqz	a0,18fa <mmio.c.a041d146+0x1c1>
    18f4:	41550533          	sub	a0,a0,s5
    18f8:	c048                	sw	a0,4(s0)
    18fa:	405c                	lw	a5,4(s0)
    18fc:	c81c                	sw	a5,16(s0)
    18fe:	040401a3          	sb	zero,67(s0)
    1902:	b73d                	j	1830 <mmio.c.a041d146+0xf7>
    1904:	4814                	lw	a3,16(s0)
    1906:	8656                	mv	a2,s5
    1908:	85ca                	mv	a1,s2
    190a:	8526                	mv	a0,s1
    190c:	9982                	jalr	s3
    190e:	f3450ae3          	beq	a0,s4,1842 <mmio.c.a041d146+0x109>
    1912:	401c                	lw	a5,0(s0)
    1914:	8b89                	andi	a5,a5,2
    1916:	e78d                	bnez	a5,1940 <mmio.c.a041d146+0x207>
    1918:	47b2                	lw	a5,12(sp)
    191a:	4448                	lw	a0,12(s0)
    191c:	f2f554e3          	bge	a0,a5,1844 <mmio.c.a041d146+0x10b>
    1920:	853e                	mv	a0,a5
    1922:	b70d                	j	1844 <mmio.c.a041d146+0x10b>
    1924:	4685                	li	a3,1
    1926:	8656                	mv	a2,s5
    1928:	85ca                	mv	a1,s2
    192a:	8526                	mv	a0,s1
    192c:	9982                	jalr	s3
    192e:	f1650ae3          	beq	a0,s6,1842 <mmio.c.a041d146+0x109>
    1932:	0a05                	addi	s4,s4,1
    1934:	445c                	lw	a5,12(s0)
    1936:	4732                	lw	a4,12(sp)
    1938:	8f99                	sub	a5,a5,a4
    193a:	fefa45e3          	blt	s4,a5,1924 <mmio.c.a041d146+0x1eb>
    193e:	bfe9                	j	1918 <mmio.c.a041d146+0x1df>
    1940:	4a01                	li	s4,0
    1942:	01940a93          	addi	s5,s0,25
    1946:	5b7d                	li	s6,-1
    1948:	b7f5                	j	1934 <mmio.c.a041d146+0x1fb>

0000194a <__sfvwrite_r>:
    194a:	461c                	lw	a5,8(a2)
    194c:	e781                	bnez	a5,1954 <__sfvwrite_r+0xa>
    194e:	4781                	li	a5,0
    1950:	853e                	mv	a0,a5
    1952:	8082                	ret
    1954:	00c5d783          	lhu	a5,12(a1)
    1958:	715d                	addi	sp,sp,-80
    195a:	c4a2                	sw	s0,72(sp)
    195c:	c0ca                	sw	s2,64(sp)
    195e:	dc52                	sw	s4,56(sp)
    1960:	c686                	sw	ra,76(sp)
    1962:	c2a6                	sw	s1,68(sp)
    1964:	de4e                	sw	s3,60(sp)
    1966:	da56                	sw	s5,52(sp)
    1968:	d85a                	sw	s6,48(sp)
    196a:	d65e                	sw	s7,44(sp)
    196c:	d462                	sw	s8,40(sp)
    196e:	d266                	sw	s9,36(sp)
    1970:	d06a                	sw	s10,32(sp)
    1972:	ce6e                	sw	s11,28(sp)
    1974:	8ba1                	andi	a5,a5,8
    1976:	892a                	mv	s2,a0
    1978:	842e                	mv	s0,a1
    197a:	8a32                	mv	s4,a2
    197c:	cbd9                	beqz	a5,1a12 <__sfvwrite_r+0xc8>
    197e:	499c                	lw	a5,16(a1)
    1980:	cbc9                	beqz	a5,1a12 <__sfvwrite_r+0xc8>
    1982:	00c45783          	lhu	a5,12(s0)
    1986:	000a2983          	lw	s3,0(s4)
    198a:	0027f713          	andi	a4,a5,2
    198e:	e37d                	bnez	a4,1a74 <__sfvwrite_r+0x12a>
    1990:	8b85                	andi	a5,a5,1
    1992:	14078f63          	beqz	a5,1af0 <__sfvwrite_r+0x1a6>
    1996:	4b81                	li	s7,0
    1998:	4501                	li	a0,0
    199a:	4b01                	li	s6,0
    199c:	4a81                	li	s5,0
    199e:	220a8e63          	beqz	s5,1bda <__sfvwrite_r+0x290>
    19a2:	e919                	bnez	a0,19b8 <__sfvwrite_r+0x6e>
    19a4:	8656                	mv	a2,s5
    19a6:	45a9                	li	a1,10
    19a8:	855a                	mv	a0,s6
    19aa:	24b5                	jal	1c16 <memchr>
    19ac:	001a8b93          	addi	s7,s5,1
    19b0:	c501                	beqz	a0,19b8 <__sfvwrite_r+0x6e>
    19b2:	0505                	addi	a0,a0,1
    19b4:	41650bb3          	sub	s7,a0,s6
    19b8:	8c5e                	mv	s8,s7
    19ba:	017af363          	bgeu	s5,s7,19c0 <__sfvwrite_r+0x76>
    19be:	8c56                	mv	s8,s5
    19c0:	4008                	lw	a0,0(s0)
    19c2:	481c                	lw	a5,16(s0)
    19c4:	4404                	lw	s1,8(s0)
    19c6:	4854                	lw	a3,20(s0)
    19c8:	22a7f063          	bgeu	a5,a0,1be8 <__sfvwrite_r+0x29e>
    19cc:	94b6                	add	s1,s1,a3
    19ce:	2184dd63          	bge	s1,s8,1be8 <__sfvwrite_r+0x29e>
    19d2:	85da                	mv	a1,s6
    19d4:	8626                	mv	a2,s1
    19d6:	2ca9                	jal	1c30 <memmove>
    19d8:	401c                	lw	a5,0(s0)
    19da:	85a2                	mv	a1,s0
    19dc:	854a                	mv	a0,s2
    19de:	97a6                	add	a5,a5,s1
    19e0:	c01c                	sw	a5,0(s0)
    19e2:	8c2ff0ef          	jal	ra,aa4 <_fflush_r>
    19e6:	0e051d63          	bnez	a0,1ae0 <__sfvwrite_r+0x196>
    19ea:	409b8bb3          	sub	s7,s7,s1
    19ee:	4505                	li	a0,1
    19f0:	000b9763          	bnez	s7,19fe <__sfvwrite_r+0xb4>
    19f4:	85a2                	mv	a1,s0
    19f6:	854a                	mv	a0,s2
    19f8:	8acff0ef          	jal	ra,aa4 <_fflush_r>
    19fc:	e175                	bnez	a0,1ae0 <__sfvwrite_r+0x196>
    19fe:	008a2783          	lw	a5,8(s4)
    1a02:	9b26                	add	s6,s6,s1
    1a04:	409a8ab3          	sub	s5,s5,s1
    1a08:	8f85                	sub	a5,a5,s1
    1a0a:	00fa2423          	sw	a5,8(s4)
    1a0e:	fbc1                	bnez	a5,199e <__sfvwrite_r+0x54>
    1a10:	a089                	j	1a52 <__sfvwrite_r+0x108>
    1a12:	85a2                	mv	a1,s0
    1a14:	854a                	mv	a0,s2
    1a16:	d07fe0ef          	jal	ra,71c <__swsetup_r>
    1a1a:	57fd                	li	a5,-1
    1a1c:	d13d                	beqz	a0,1982 <__sfvwrite_r+0x38>
    1a1e:	a81d                	j	1a54 <__sfvwrite_r+0x10a>
    1a20:	0009aa83          	lw	s5,0(s3)
    1a24:	0049a483          	lw	s1,4(s3)
    1a28:	09a1                	addi	s3,s3,8
    1a2a:	541c                	lw	a5,40(s0)
    1a2c:	500c                	lw	a1,32(s0)
    1a2e:	d8ed                	beqz	s1,1a20 <__sfvwrite_r+0xd6>
    1a30:	86a6                	mv	a3,s1
    1a32:	009b7363          	bgeu	s6,s1,1a38 <__sfvwrite_r+0xee>
    1a36:	86da                	mv	a3,s6
    1a38:	8656                	mv	a2,s5
    1a3a:	854a                	mv	a0,s2
    1a3c:	9782                	jalr	a5
    1a3e:	0aa05163          	blez	a0,1ae0 <__sfvwrite_r+0x196>
    1a42:	008a2783          	lw	a5,8(s4)
    1a46:	9aaa                	add	s5,s5,a0
    1a48:	8c89                	sub	s1,s1,a0
    1a4a:	8f89                	sub	a5,a5,a0
    1a4c:	00fa2423          	sw	a5,8(s4)
    1a50:	ffe9                	bnez	a5,1a2a <__sfvwrite_r+0xe0>
    1a52:	4781                	li	a5,0
    1a54:	40b6                	lw	ra,76(sp)
    1a56:	4426                	lw	s0,72(sp)
    1a58:	4496                	lw	s1,68(sp)
    1a5a:	4906                	lw	s2,64(sp)
    1a5c:	59f2                	lw	s3,60(sp)
    1a5e:	5a62                	lw	s4,56(sp)
    1a60:	5ad2                	lw	s5,52(sp)
    1a62:	5b42                	lw	s6,48(sp)
    1a64:	5bb2                	lw	s7,44(sp)
    1a66:	5c22                	lw	s8,40(sp)
    1a68:	5c92                	lw	s9,36(sp)
    1a6a:	5d02                	lw	s10,32(sp)
    1a6c:	4df2                	lw	s11,28(sp)
    1a6e:	853e                	mv	a0,a5
    1a70:	6161                	addi	sp,sp,80
    1a72:	8082                	ret
    1a74:	80000b37          	lui	s6,0x80000
    1a78:	4a81                	li	s5,0
    1a7a:	4481                	li	s1,0
    1a7c:	c00b4b13          	xori	s6,s6,-1024
    1a80:	b76d                	j	1a2a <__sfvwrite_r+0xe0>
    1a82:	0009aa83          	lw	s5,0(s3)
    1a86:	0049ad03          	lw	s10,4(s3)
    1a8a:	09a1                	addi	s3,s3,8
    1a8c:	00c41703          	lh	a4,12(s0)
    1a90:	4008                	lw	a0,0(s0)
    1a92:	4410                	lw	a2,8(s0)
    1a94:	fe0d07e3          	beqz	s10,1a82 <__sfvwrite_r+0x138>
    1a98:	01071793          	slli	a5,a4,0x10
    1a9c:	20077713          	andi	a4,a4,512
    1aa0:	83c1                	srli	a5,a5,0x10
    1aa2:	c36d                	beqz	a4,1b84 <__sfvwrite_r+0x23a>
    1aa4:	08cd6763          	bltu	s10,a2,1b32 <__sfvwrite_r+0x1e8>
    1aa8:	4807f713          	andi	a4,a5,1152
    1aac:	c359                	beqz	a4,1b32 <__sfvwrite_r+0x1e8>
    1aae:	4844                	lw	s1,20(s0)
    1ab0:	480c                	lw	a1,16(s0)
    1ab2:	029c04b3          	mul	s1,s8,s1
    1ab6:	40b50db3          	sub	s11,a0,a1
    1aba:	001d8713          	addi	a4,s11,1
    1abe:	976a                	add	a4,a4,s10
    1ac0:	0394c4b3          	div	s1,s1,s9
    1ac4:	00e4f363          	bgeu	s1,a4,1aca <__sfvwrite_r+0x180>
    1ac8:	84ba                	mv	s1,a4
    1aca:	4007f793          	andi	a5,a5,1024
    1ace:	cbd9                	beqz	a5,1b64 <__sfvwrite_r+0x21a>
    1ad0:	85a6                	mv	a1,s1
    1ad2:	854a                	mv	a0,s2
    1ad4:	c80ff0ef          	jal	ra,f54 <_malloc_r>
    1ad8:	e51d                	bnez	a0,1b06 <__sfvwrite_r+0x1bc>
    1ada:	47b1                	li	a5,12
    1adc:	00f92023          	sw	a5,0(s2)
    1ae0:	00c45783          	lhu	a5,12(s0)
    1ae4:	0407e793          	ori	a5,a5,64
    1ae8:	00f41623          	sh	a5,12(s0)
    1aec:	57fd                	li	a5,-1
    1aee:	b79d                	j	1a54 <__sfvwrite_r+0x10a>
    1af0:	80000b37          	lui	s6,0x80000
    1af4:	ffeb4b93          	xori	s7,s6,-2
    1af8:	4a81                	li	s5,0
    1afa:	4d01                	li	s10,0
    1afc:	fffb4b13          	not	s6,s6
    1b00:	4c0d                	li	s8,3
    1b02:	4c89                	li	s9,2
    1b04:	b761                	j	1a8c <__sfvwrite_r+0x142>
    1b06:	480c                	lw	a1,16(s0)
    1b08:	866e                	mv	a2,s11
    1b0a:	c62a                	sw	a0,12(sp)
    1b0c:	f20ff0ef          	jal	ra,122c <memcpy>
    1b10:	00c45703          	lhu	a4,12(s0)
    1b14:	47b2                	lw	a5,12(sp)
    1b16:	b7f77713          	andi	a4,a4,-1153
    1b1a:	08076713          	ori	a4,a4,128
    1b1e:	00e41623          	sh	a4,12(s0)
    1b22:	c81c                	sw	a5,16(s0)
    1b24:	c844                	sw	s1,20(s0)
    1b26:	97ee                	add	a5,a5,s11
    1b28:	41b484b3          	sub	s1,s1,s11
    1b2c:	c01c                	sw	a5,0(s0)
    1b2e:	866a                	mv	a2,s10
    1b30:	c404                	sw	s1,8(s0)
    1b32:	84ea                	mv	s1,s10
    1b34:	00cd7363          	bgeu	s10,a2,1b3a <__sfvwrite_r+0x1f0>
    1b38:	866a                	mv	a2,s10
    1b3a:	4008                	lw	a0,0(s0)
    1b3c:	85d6                	mv	a1,s5
    1b3e:	c632                	sw	a2,12(sp)
    1b40:	28c5                	jal	1c30 <memmove>
    1b42:	441c                	lw	a5,8(s0)
    1b44:	4632                	lw	a2,12(sp)
    1b46:	8f91                	sub	a5,a5,a2
    1b48:	c41c                	sw	a5,8(s0)
    1b4a:	401c                	lw	a5,0(s0)
    1b4c:	97b2                	add	a5,a5,a2
    1b4e:	c01c                	sw	a5,0(s0)
    1b50:	008a2783          	lw	a5,8(s4)
    1b54:	9aa6                	add	s5,s5,s1
    1b56:	409d0d33          	sub	s10,s10,s1
    1b5a:	8f85                	sub	a5,a5,s1
    1b5c:	00fa2423          	sw	a5,8(s4)
    1b60:	f795                	bnez	a5,1a8c <__sfvwrite_r+0x142>
    1b62:	bdc5                	j	1a52 <__sfvwrite_r+0x108>
    1b64:	8626                	mv	a2,s1
    1b66:	854a                	mv	a0,s2
    1b68:	20fd                	jal	1c56 <_realloc_r>
    1b6a:	87aa                	mv	a5,a0
    1b6c:	f95d                	bnez	a0,1b22 <__sfvwrite_r+0x1d8>
    1b6e:	480c                	lw	a1,16(s0)
    1b70:	854a                	mv	a0,s2
    1b72:	b44ff0ef          	jal	ra,eb6 <_free_r>
    1b76:	00c45783          	lhu	a5,12(s0)
    1b7a:	f7f7f793          	andi	a5,a5,-129
    1b7e:	00f41623          	sh	a5,12(s0)
    1b82:	bfa1                	j	1ada <__sfvwrite_r+0x190>
    1b84:	481c                	lw	a5,16(s0)
    1b86:	00a7e563          	bltu	a5,a0,1b90 <__sfvwrite_r+0x246>
    1b8a:	4854                	lw	a3,20(s0)
    1b8c:	02dd7663          	bgeu	s10,a3,1bb8 <__sfvwrite_r+0x26e>
    1b90:	84b2                	mv	s1,a2
    1b92:	00cd7363          	bgeu	s10,a2,1b98 <__sfvwrite_r+0x24e>
    1b96:	84ea                	mv	s1,s10
    1b98:	8626                	mv	a2,s1
    1b9a:	85d6                	mv	a1,s5
    1b9c:	2851                	jal	1c30 <memmove>
    1b9e:	441c                	lw	a5,8(s0)
    1ba0:	4018                	lw	a4,0(s0)
    1ba2:	8f85                	sub	a5,a5,s1
    1ba4:	9726                	add	a4,a4,s1
    1ba6:	c41c                	sw	a5,8(s0)
    1ba8:	c018                	sw	a4,0(s0)
    1baa:	f3dd                	bnez	a5,1b50 <__sfvwrite_r+0x206>
    1bac:	85a2                	mv	a1,s0
    1bae:	854a                	mv	a0,s2
    1bb0:	ef5fe0ef          	jal	ra,aa4 <_fflush_r>
    1bb4:	dd51                	beqz	a0,1b50 <__sfvwrite_r+0x206>
    1bb6:	b72d                	j	1ae0 <__sfvwrite_r+0x196>
    1bb8:	87da                	mv	a5,s6
    1bba:	01abe363          	bltu	s7,s10,1bc0 <__sfvwrite_r+0x276>
    1bbe:	87ea                	mv	a5,s10
    1bc0:	02d7c7b3          	div	a5,a5,a3
    1bc4:	5418                	lw	a4,40(s0)
    1bc6:	500c                	lw	a1,32(s0)
    1bc8:	8656                	mv	a2,s5
    1bca:	854a                	mv	a0,s2
    1bcc:	02d786b3          	mul	a3,a5,a3
    1bd0:	9702                	jalr	a4
    1bd2:	84aa                	mv	s1,a0
    1bd4:	f6a04ee3          	bgtz	a0,1b50 <__sfvwrite_r+0x206>
    1bd8:	b721                	j	1ae0 <__sfvwrite_r+0x196>
    1bda:	0009ab03          	lw	s6,0(s3)
    1bde:	0049aa83          	lw	s5,4(s3)
    1be2:	4501                	li	a0,0
    1be4:	09a1                	addi	s3,s3,8
    1be6:	bb65                	j	199e <__sfvwrite_r+0x54>
    1be8:	00dc4b63          	blt	s8,a3,1bfe <__sfvwrite_r+0x2b4>
    1bec:	541c                	lw	a5,40(s0)
    1bee:	500c                	lw	a1,32(s0)
    1bf0:	865a                	mv	a2,s6
    1bf2:	854a                	mv	a0,s2
    1bf4:	9782                	jalr	a5
    1bf6:	84aa                	mv	s1,a0
    1bf8:	dea049e3          	bgtz	a0,19ea <__sfvwrite_r+0xa0>
    1bfc:	b5d5                	j	1ae0 <__sfvwrite_r+0x196>
    1bfe:	8662                	mv	a2,s8
    1c00:	85da                	mv	a1,s6
    1c02:	203d                	jal	1c30 <memmove>
    1c04:	441c                	lw	a5,8(s0)
    1c06:	84e2                	mv	s1,s8
    1c08:	418787b3          	sub	a5,a5,s8
    1c0c:	c41c                	sw	a5,8(s0)
    1c0e:	401c                	lw	a5,0(s0)
    1c10:	97e2                	add	a5,a5,s8
    1c12:	c01c                	sw	a5,0(s0)
    1c14:	bbd9                	j	19ea <__sfvwrite_r+0xa0>

00001c16 <memchr>:
    1c16:	0ff5f593          	zext.b	a1,a1
    1c1a:	962a                	add	a2,a2,a0
    1c1c:	00c51463          	bne	a0,a2,1c24 <memchr+0xe>
    1c20:	4501                	li	a0,0
    1c22:	8082                	ret
    1c24:	00054783          	lbu	a5,0(a0)
    1c28:	feb78de3          	beq	a5,a1,1c22 <memchr+0xc>
    1c2c:	0505                	addi	a0,a0,1
    1c2e:	b7fd                	j	1c1c <memchr+0x6>

00001c30 <memmove>:
    1c30:	c215                	beqz	a2,1c54 <memmove+0x24>
    1c32:	832a                	mv	t1,a0
    1c34:	4685                	li	a3,1
    1c36:	00b56763          	bltu	a0,a1,1c44 <memmove+0x14>
    1c3a:	56fd                	li	a3,-1
    1c3c:	fff60713          	addi	a4,a2,-1
    1c40:	933a                	add	t1,t1,a4
    1c42:	95ba                	add	a1,a1,a4
    1c44:	00058383          	lb	t2,0(a1)
    1c48:	00730023          	sb	t2,0(t1)
    1c4c:	167d                	addi	a2,a2,-1
    1c4e:	9336                	add	t1,t1,a3
    1c50:	95b6                	add	a1,a1,a3
    1c52:	fa6d                	bnez	a2,1c44 <memmove+0x14>
    1c54:	8082                	ret

00001c56 <_realloc_r>:
    1c56:	1101                	addi	sp,sp,-32
    1c58:	cc22                	sw	s0,24(sp)
    1c5a:	ce06                	sw	ra,28(sp)
    1c5c:	ca26                	sw	s1,20(sp)
    1c5e:	c84a                	sw	s2,16(sp)
    1c60:	c64e                	sw	s3,12(sp)
    1c62:	c452                	sw	s4,8(sp)
    1c64:	8432                	mv	s0,a2
    1c66:	e999                	bnez	a1,1c7c <_realloc_r+0x26>
    1c68:	4462                	lw	s0,24(sp)
    1c6a:	40f2                	lw	ra,28(sp)
    1c6c:	44d2                	lw	s1,20(sp)
    1c6e:	4942                	lw	s2,16(sp)
    1c70:	49b2                	lw	s3,12(sp)
    1c72:	4a22                	lw	s4,8(sp)
    1c74:	85b2                	mv	a1,a2
    1c76:	6105                	addi	sp,sp,32
    1c78:	adcff06f          	j	f54 <_malloc_r>
    1c7c:	ee09                	bnez	a2,1c96 <_realloc_r+0x40>
    1c7e:	a38ff0ef          	jal	ra,eb6 <_free_r>
    1c82:	4481                	li	s1,0
    1c84:	40f2                	lw	ra,28(sp)
    1c86:	4462                	lw	s0,24(sp)
    1c88:	4942                	lw	s2,16(sp)
    1c8a:	49b2                	lw	s3,12(sp)
    1c8c:	4a22                	lw	s4,8(sp)
    1c8e:	8526                	mv	a0,s1
    1c90:	44d2                	lw	s1,20(sp)
    1c92:	6105                	addi	sp,sp,32
    1c94:	8082                	ret
    1c96:	8a2a                	mv	s4,a0
    1c98:	892e                	mv	s2,a1
    1c9a:	2825                	jal	1cd2 <_malloc_usable_size_r>
    1c9c:	89aa                	mv	s3,a0
    1c9e:	00856763          	bltu	a0,s0,1cac <_realloc_r+0x56>
    1ca2:	00155793          	srli	a5,a0,0x1
    1ca6:	84ca                	mv	s1,s2
    1ca8:	fc87eee3          	bltu	a5,s0,1c84 <_realloc_r+0x2e>
    1cac:	85a2                	mv	a1,s0
    1cae:	8552                	mv	a0,s4
    1cb0:	aa4ff0ef          	jal	ra,f54 <_malloc_r>
    1cb4:	84aa                	mv	s1,a0
    1cb6:	d579                	beqz	a0,1c84 <_realloc_r+0x2e>
    1cb8:	8622                	mv	a2,s0
    1cba:	0089f363          	bgeu	s3,s0,1cc0 <_realloc_r+0x6a>
    1cbe:	864e                	mv	a2,s3
    1cc0:	85ca                	mv	a1,s2
    1cc2:	8526                	mv	a0,s1
    1cc4:	d68ff0ef          	jal	ra,122c <memcpy>
    1cc8:	85ca                	mv	a1,s2
    1cca:	8552                	mv	a0,s4
    1ccc:	9eaff0ef          	jal	ra,eb6 <_free_r>
    1cd0:	bf55                	j	1c84 <_realloc_r+0x2e>

00001cd2 <_malloc_usable_size_r>:
    1cd2:	ffc5a783          	lw	a5,-4(a1)
    1cd6:	ffc78513          	addi	a0,a5,-4
    1cda:	0007d563          	bgez	a5,1ce4 <_malloc_usable_size_r+0x12>
    1cde:	95aa                	add	a1,a1,a0
    1ce0:	419c                	lw	a5,0(a1)
    1ce2:	953e                	add	a0,a0,a5
    1ce4:	8082                	ret
